{
   <insert_a_suppression_name_here>
   Memcheck:Leak
   fun:_Znwm
   fun:_ZN5boost6python7objects11py_functionC2INS0_6detail6callerIPFvP7_objectSt8weak_ptrIN4dust15key_value_storeEESsENS0_21default_call_policiesENS_3mpl7vector4IvS7_SB_SsEEEEEERKT_
   fun:_ZN5boost6python7objects11py_functionC1INS0_6detail6callerIPFvP7_objectSt8weak_ptrIN4dust15key_value_storeEESsENS0_21default_call_policiesENS_3mpl7vector4IvS7_SB_SsEEEEEERKT_
   fun:_ZN5boost6python6detail17make_function_auxIPFvP7_objectSt8weak_ptrIN4dust15key_value_storeEESsENS0_21default_call_policiesENS_3mpl7vector4IvS4_S8_SsEEN4mpl_4int_ILi0EEEEENS0_3api6objectET_RKT0_RKT1_RKSt4pairIPKNS1_7keywordESU_ET2_
   fun:_ZN5boost6python6detail27make_keyword_range_functionIPFvP7_objectSt8weak_ptrIN4dust15key_value_storeEESsENS0_21default_call_policiesEEENS0_3api6objectET_RKT0_RKSt4pairIPKNS1_7keywordESL_E
   fun:_ZN5boost6python6detail30make_keyword_range_constructorINS_3mpl7vector2ISt8weak_ptrIN4dust15key_value_storeEESsEENS3_4sizeIS9_EENS0_7objects12value_holderINS6_8documentEEENS0_21default_call_policiesEEENS0_3api6objectERKT2_RKSt4pairIPKNS1_7keywordESP_EPT1_PT_PT0_
   fun:_ZN5boost6python6detail12def_init_auxINS0_6class_IN4dust8documentENS1_13not_specifiedES6_S6_EENS0_21default_call_policiesENS_3mpl7vector2ISt8weak_ptrINS4_15key_value_storeEESsEENS9_4sizeISE_EEEEvRT_RKT1_T2_RKT0_PKcRKSt4pairIPKNS1_7keywordESV_E
   fun:_ZN5boost6python6detail24define_class_init_helperILi0EE5applyINS0_6class_IN4dust8documentENS1_13not_specifiedES8_S8_EENS0_21default_call_policiesENS_3mpl7vector2ISt8weak_ptrINS6_15key_value_storeEESsEENSB_4sizeISG_EEEEvRT_RKT0_RKT1_T2_PKcRKSt4pairIPKNS1_7keywordESX_E
   fun:_ZNK5boost6python9init_baseINS0_4initISt8weak_ptrIN4dust15key_value_storeEESsN4mpl_5void_ES8_S8_S8_S8_S8_S8_S8_S8_S8_S8_S8_S8_EEE5visitINS0_6class_INS4_8documentENS0_6detail13not_specifiedESF_SF_EEEEvRT_
   fun:_ZN5boost6python18def_visitor_access5visitINS0_11def_visitorINS0_4initISt8weak_ptrIN4dust15key_value_storeEESsN4mpl_5void_ESA_SA_SA_SA_SA_SA_SA_SA_SA_SA_SA_SA_EEEENS0_6class_INS6_8documentENS0_6detail13not_specifiedESG_SG_EEEEvRKT_RT0_
   fun:_ZNK5boost6python11def_visitorINS0_4initISt8weak_ptrIN4dust15key_value_storeEESsN4mpl_5void_ES8_S8_S8_S8_S8_S8_S8_S8_S8_S8_S8_S8_EEE5visitINS0_6class_INS4_8documentENS0_6detail13not_specifiedESF_SF_EEEEvRT_
   fun:_ZN5boost6python6class_IN4dust8documentENS0_6detail13not_specifiedES5_S5_E3defINS0_4initISt8weak_ptrINS2_15key_value_storeEESsN4mpl_5void_ESD_SD_SD_SD_SD_SD_SD_SD_SD_SD_SD_SD_EEEERS6_RKNS0_11def_visitorIT_EE
}
{
   <insert_a_suppression_name_here>
   Memcheck:Leak
   fun:_Znwm
   fun:_ZN5boost6python7objects11py_functionC2INS0_6detail6callerIPFvP7_objectENS0_21default_call_policiesENS_3mpl7vector2IvS7_EEEEEERKT_
   fun:_ZN5boost6python7objects11py_functionC1INS0_6detail6callerIPFvP7_objectENS0_21default_call_policiesENS_3mpl7vector2IvS7_EEEEEERKT_
   fun:_ZN5boost6python6detail17make_function_auxIPFvP7_objectENS0_21default_call_policiesENS_3mpl7vector2IvS4_EEN4mpl_4int_ILi0EEEEENS0_3api6objectET_RKT0_RKT1_RKSt4pairIPKNS1_7keywordESQ_ET2_
   fun:_ZN5boost6python6detail27make_keyword_range_functionIPFvP7_objectENS0_21default_call_policiesEEENS0_3api6objectET_RKT0_RKSt4pairIPKNS1_7keywordESH_E
   fun:_ZN5boost6python6detail30make_keyword_range_constructorINS_3mpl7vector0IN4mpl_2naEEENS3_4sizeIS7_EENS0_7objects12value_holderISt6vectorIN4dust8documentESaISE_EEEENS0_21default_call_policiesEEENS0_3api6objectERKT2_RKSt4pairIPKNS1_7keywordESR_EPT1_PT_PT0_
   fun:_ZN5boost6python6detail12def_init_auxINS0_6class_ISt6vectorIN4dust8documentESaIS6_EENS1_13not_specifiedES9_S9_EENS0_21default_call_policiesENS_3mpl7vector0IN4mpl_2naEEENSC_4sizeISG_EEEEvRT_RKT1_T2_RKT0_PKcRKSt4pairIPKNS1_7keywordESX_E
   fun:_ZN5boost6python6detail24define_class_init_helperILi0EE5applyINS0_6class_ISt6vectorIN4dust8documentESaIS8_EENS1_13not_specifiedESB_SB_EENS0_21default_call_policiesENS_3mpl7vector0IN4mpl_2naEEENSE_4sizeISI_EEEEvRT_RKT0_RKT1_T2_PKcRKSt4pairIPKNS1_7keywordESZ_E
   fun:_ZNK5boost6python9init_baseINS0_4initIN4mpl_5void_ES4_S4_S4_S4_S4_S4_S4_S4_S4_S4_S4_S4_S4_S4_EEE5visitINS0_6class_ISt6vectorIN4dust8documentESaISB_EENS0_6detail13not_specifiedESF_SF_EEEEvRT_
   fun:_ZN5boost6python18def_visitor_access5visitINS0_11def_visitorINS0_4initIN4mpl_5void_ES6_S6_S6_S6_S6_S6_S6_S6_S6_S6_S6_S6_S6_S6_EEEENS0_6class_ISt6vectorIN4dust8documentESaISC_EENS0_6detail13not_specifiedESG_SG_EEEEvRKT_RT0_
   fun:_ZNK5boost6python11def_visitorINS0_4initIN4mpl_5void_ES4_S4_S4_S4_S4_S4_S4_S4_S4_S4_S4_S4_S4_S4_EEE5visitINS0_6class_ISt6vectorIN4dust8documentESaISB_EENS0_6detail13not_specifiedESF_SF_EEEEvRT_
   fun:_ZN5boost6python6class_ISt6vectorIN4dust8documentESaIS4_EENS0_6detail13not_specifiedES8_S8_E3defINS0_4initIN4mpl_5void_ESD_SD_SD_SD_SD_SD_SD_SD_SD_SD_SD_SD_SD_SD_EEEERS9_RKNS0_11def_visitorIT_EE
}
{
   <insert_a_suppression_name_here>
   Memcheck:Leak
   fun:_Znwm
   fun:_ZN5boost6python7objects11py_functionC2INS0_6detail6callerIPFmRSt6vectorIN4dust8documentESaIS8_EEENS0_21default_call_policiesENS_3mpl7vector2ImSB_EEEEEERKT_
   fun:_ZN5boost6python7objects11py_functionC1INS0_6detail6callerIPFmRSt6vectorIN4dust8documentESaIS8_EEENS0_21default_call_policiesENS_3mpl7vector2ImSB_EEEEEERKT_
   fun:_ZN5boost6python6detail17make_function_auxIPFmRSt6vectorIN4dust8documentESaIS5_EEENS0_21default_call_policiesENS_3mpl7vector2ImS8_EEN4mpl_4int_ILi0EEEEENS0_3api6objectET_RKT0_RKT1_RKSt4pairIPKNS1_7keywordESU_ET2_
   fun:_ZN5boost6python13make_functionIPFmRSt6vectorIN4dust8documentESaIS4_EEENS0_21default_call_policiesENS0_6detail8keywordsILm0EEENS_3mpl7vector2ImS7_EEEENS0_3api6objectET_RKT0_RKT1_RKT2_
   fun:_ZN5boost6python6class_ISt6vectorIN4dust8documentESaIS4_EENS0_6detail13not_specifiedES8_S8_E8def_implIS6_PFmRS6_ENS7_10def_helperIPKcS8_S8_S8_EEEEvPT_SG_T0_RKT1_z
   fun:_ZN5boost6python6class_ISt6vectorIN4dust8documentESaIS4_EENS0_6detail13not_specifiedES8_S8_E3defIPFmRS6_EEERS9_PKcT_
   fun:_ZNK5boost6python14indexing_suiteISt6vectorIN4dust8documentESaIS4_EENS0_6detail29final_vector_derived_policiesIS6_Lb0EEELb0ELb0ES4_mS4_E5visitINS0_6class_IS6_NS7_13not_specifiedESD_SD_EEEEvRT_
   fun:_ZN5boost6python18def_visitor_access5visitINS0_11def_visitorINS0_14indexing_suiteISt6vectorIN4dust8documentESaIS7_EENS0_6detail29final_vector_derived_policiesIS9_Lb0EEELb0ELb0ES7_mS7_EEEENS0_6class_IS9_NSA_13not_specifiedESG_SG_EEEEvRKT_RT0_
   fun:_ZNK5boost6python11def_visitorINS0_14indexing_suiteISt6vectorIN4dust8documentESaIS5_EENS0_6detail29final_vector_derived_policiesIS7_Lb0EEELb0ELb0ES5_mS5_EEE5visitINS0_6class_IS7_NS8_13not_specifiedESF_SF_EEEEvRT_
   fun:_ZN5boost6python6class_ISt6vectorIN4dust8documentESaIS4_EENS0_6detail13not_specifiedES8_S8_E3defINS0_14indexing_suiteIS6_NS7_29final_vector_derived_policiesIS6_Lb0EEELb0ELb0ES4_mS4_EEEERS9_RKNS0_11def_visitorIT_EE
   fun:_ZN11dust_server16init_module_DustEv
}
{
   <insert_a_suppression_name_here>
   Memcheck:Leak
   fun:_Znwm
   fun:_ZN5boost6python7objects11py_functionC2INS0_6detail6callerIPFvRSt6vectorIN4dust8documentESaIS8_EEP7_objectSD_ENS0_21default_call_policiesENS_3mpl7vector4IvSB_SD_SD_EEEEEERKT_
   fun:_ZN5boost6python7objects11py_functionC1INS0_6detail6callerIPFvRSt6vectorIN4dust8documentESaIS8_EEP7_objectSD_ENS0_21default_call_policiesENS_3mpl7vector4IvSB_SD_SD_EEEEEERKT_
   fun:_ZN5boost6python6detail17make_function_auxIPFvRSt6vectorIN4dust8documentESaIS5_EEP7_objectSA_ENS0_21default_call_policiesENS_3mpl7vector4IvS8_SA_SA_EEN4mpl_4int_ILi0EEEEENS0_3api6objectET_RKT0_RKT1_RKSt4pairIPKNS1_7keywordESW_ET2_
   fun:_ZN5boost6python13make_functionIPFvRSt6vectorIN4dust8documentESaIS4_EEP7_objectS9_ENS0_21default_call_policiesENS0_6detail8keywordsILm0EEENS_3mpl7vector4IvS7_S9_S9_EEEENS0_3api6objectET_RKT0_RKT1_RKT2_
   fun:_ZN5boost6python6class_ISt6vectorIN4dust8documentESaIS4_EENS0_6detail13not_specifiedES8_S8_E8def_implIS6_PFvRS6_P7_objectSD_ENS7_10def_helperIPKcS8_S8_S8_EEEEvPT_SI_T0_RKT1_z
   fun:_ZN5boost6python6class_ISt6vectorIN4dust8documentESaIS4_EENS0_6detail13not_specifiedES8_S8_E3defIPFvRS6_P7_objectSD_EEERS9_PKcT_
   fun:_ZNK5boost6python14indexing_suiteISt6vectorIN4dust8documentESaIS4_EENS0_6detail29final_vector_derived_policiesIS6_Lb0EEELb0ELb0ES4_mS4_E5visitINS0_6class_IS6_NS7_13not_specifiedESD_SD_EEEEvRT_
   fun:_ZN5boost6python18def_visitor_access5visitINS0_11def_visitorINS0_14indexing_suiteISt6vectorIN4dust8documentESaIS7_EENS0_6detail29final_vector_derived_policiesIS9_Lb0EEELb0ELb0ES7_mS7_EEEENS0_6class_IS9_NSA_13not_specifiedESG_SG_EEEEvRKT_RT0_
   fun:_ZNK5boost6python11def_visitorINS0_14indexing_suiteISt6vectorIN4dust8documentESaIS5_EENS0_6detail29final_vector_derived_policiesIS7_Lb0EEELb0ELb0ES5_mS5_EEE5visitINS0_6class_IS7_NS8_13not_specifiedESF_SF_EEEEvRT_
   fun:_ZN5boost6python6class_ISt6vectorIN4dust8documentESaIS4_EENS0_6detail13not_specifiedES8_S8_E3defINS0_14indexing_suiteIS6_NS7_29final_vector_derived_policiesIS6_Lb0EEELb0ELb0ES4_mS4_EEEERS9_RKNS0_11def_visitorIT_EE
   fun:_ZN11dust_server16init_module_DustEv
}
{
   <insert_a_suppression_name_here>
   Memcheck:Leak
   fun:_Znwm
   fun:_ZN5boost6python7objects11py_functionC2INS0_6detail6callerIPFvRSt6vectorIN4dust8documentESaIS8_EEP7_objectENS0_21default_call_policiesENS_3mpl7vector3IvSB_SD_EEEEEERKT_
   fun:_ZN5boost6python7objects11py_functionC1INS0_6detail6callerIPFvRSt6vectorIN4dust8documentESaIS8_EEP7_objectENS0_21default_call_policiesENS_3mpl7vector3IvSB_SD_EEEEEERKT_
   fun:_ZN5boost6python6detail17make_function_auxIPFvRSt6vectorIN4dust8documentESaIS5_EEP7_objectENS0_21default_call_policiesENS_3mpl7vector3IvS8_SA_EEN4mpl_4int_ILi0EEEEENS0_3api6objectET_RKT0_RKT1_RKSt4pairIPKNS1_7keywordESW_ET2_
   fun:_ZN5boost6python13make_functionIPFvRSt6vectorIN4dust8documentESaIS4_EEP7_objectENS0_21default_call_policiesENS0_6detail8keywordsILm0EEENS_3mpl7vector3IvS7_S9_EEEENS0_3api6objectET_RKT0_RKT1_RKT2_
   fun:_ZN5boost6python6class_ISt6vectorIN4dust8documentESaIS4_EENS0_6detail13not_specifiedES8_S8_E8def_implIS6_PFvRS6_P7_objectENS7_10def_helperIPKcS8_S8_S8_EEEEvPT_SI_T0_RKT1_z
   fun:_ZN5boost6python6class_ISt6vectorIN4dust8documentESaIS4_EENS0_6detail13not_specifiedES8_S8_E3defIPFvRS6_P7_objectEEERS9_PKcT_
   fun:_ZNK5boost6python14indexing_suiteISt6vectorIN4dust8documentESaIS4_EENS0_6detail29final_vector_derived_policiesIS6_Lb0EEELb0ELb0ES4_mS4_E5visitINS0_6class_IS6_NS7_13not_specifiedESD_SD_EEEEvRT_
   fun:_ZN5boost6python18def_visitor_access5visitINS0_11def_visitorINS0_14indexing_suiteISt6vectorIN4dust8documentESaIS7_EENS0_6detail29final_vector_derived_policiesIS9_Lb0EEELb0ELb0ES7_mS7_EEEENS0_6class_IS9_NSA_13not_specifiedESG_SG_EEEEvRKT_RT0_
   fun:_ZNK5boost6python11def_visitorINS0_14indexing_suiteISt6vectorIN4dust8documentESaIS5_EENS0_6detail29final_vector_derived_policiesIS7_Lb0EEELb0ELb0ES5_mS5_EEE5visitINS0_6class_IS7_NS8_13not_specifiedESF_SF_EEEEvRT_
   fun:_ZN5boost6python6class_ISt6vectorIN4dust8documentESaIS4_EENS0_6detail13not_specifiedES8_S8_E3defINS0_14indexing_suiteIS6_NS7_29final_vector_derived_policiesIS6_Lb0EEELb0ELb0ES4_mS4_EEEERS9_RKNS0_11def_visitorIT_EE
   fun:_ZN11dust_server16init_module_DustEv
}
{
   <insert_a_suppression_name_here>
   Memcheck:Leak
   fun:_Znwm
   fun:_ZN5boost6python7objects11py_functionC2INS0_6detail6callerIPFNS0_3api6objectENS0_14back_referenceIRSt6vectorIN4dust8documentESaISB_EEEEP7_objectENS0_21default_call_policiesENS_3mpl7vector3IS7_SF_SH_EEEEEERKT_
   fun:_ZN5boost6python7objects11py_functionC1INS0_6detail6callerIPFNS0_3api6objectENS0_14back_referenceIRSt6vectorIN4dust8documentESaISB_EEEEP7_objectENS0_21default_call_policiesENS_3mpl7vector3IS7_SF_SH_EEEEEERKT_
   fun:_ZN5boost6python6detail17make_function_auxIPFNS0_3api6objectENS0_14back_referenceIRSt6vectorIN4dust8documentESaIS8_EEEEP7_objectENS0_21default_call_policiesENS_3mpl7vector3IS4_SC_SE_EEN4mpl_4int_ILi0EEEEES4_T_RKT0_RKT1_RKSt4pairIPKNS1_7keywordESY_ET2_
   fun:_ZN5boost6python13make_functionIPFNS0_3api6objectENS0_14back_referenceIRSt6vectorIN4dust8documentESaIS7_EEEEP7_objectENS0_21default_call_policiesENS0_6detail8keywordsILm0EEENS_3mpl7vector3IS3_SB_SD_EEEES3_T_RKT0_RKT1_RKT2_
   fun:_ZN5boost6python6class_ISt6vectorIN4dust8documentESaIS4_EENS0_6detail13not_specifiedES8_S8_E8def_implIS6_PFNS0_3api6objectENS0_14back_referenceIRS6_EEP7_objectENS7_10def_helperIPKcS8_S8_S8_EEEEvPT_SM_T0_RKT1_z
   fun:_ZN5boost6python6class_ISt6vectorIN4dust8documentESaIS4_EENS0_6detail13not_specifiedES8_S8_E3defIPFNS0_3api6objectENS0_14back_referenceIRS6_EEP7_objectEEERS9_PKcT_
   fun:_ZNK5boost6python14indexing_suiteISt6vectorIN4dust8documentESaIS4_EENS0_6detail29final_vector_derived_policiesIS6_Lb0EEELb0ELb0ES4_mS4_E5visitINS0_6class_IS6_NS7_13not_specifiedESD_SD_EEEEvRT_
   fun:_ZN5boost6python18def_visitor_access5visitINS0_11def_visitorINS0_14indexing_suiteISt6vectorIN4dust8documentESaIS7_EENS0_6detail29final_vector_derived_policiesIS9_Lb0EEELb0ELb0ES7_mS7_EEEENS0_6class_IS9_NSA_13not_specifiedESG_SG_EEEEvRKT_RT0_
   fun:_ZNK5boost6python11def_visitorINS0_14indexing_suiteISt6vectorIN4dust8documentESaIS5_EENS0_6detail29final_vector_derived_policiesIS7_Lb0EEELb0ELb0ES5_mS5_EEE5visitINS0_6class_IS7_NS8_13not_specifiedESF_SF_EEEEvRT_
   fun:_ZN5boost6python6class_ISt6vectorIN4dust8documentESaIS4_EENS0_6detail13not_specifiedES8_S8_E3defINS0_14indexing_suiteIS6_NS7_29final_vector_derived_policiesIS6_Lb0EEELb0ELb0ES4_mS4_EEEERS9_RKNS0_11def_visitorIT_EE
   fun:_ZN11dust_server16init_module_DustEv
}
{
   <insert_a_suppression_name_here>
   Memcheck:Leak
   fun:_Znwm
   fun:_ZN5boost6python7objects11py_functionC2INS0_6detail6callerIPFbRSt6vectorIN4dust8documentESaIS8_EEP7_objectENS0_21default_call_policiesENS_3mpl7vector3IbSB_SD_EEEEEERKT_
   fun:_ZN5boost6python7objects11py_functionC1INS0_6detail6callerIPFbRSt6vectorIN4dust8documentESaIS8_EEP7_objectENS0_21default_call_policiesENS_3mpl7vector3IbSB_SD_EEEEEERKT_
   fun:_ZN5boost6python6detail17make_function_auxIPFbRSt6vectorIN4dust8documentESaIS5_EEP7_objectENS0_21default_call_policiesENS_3mpl7vector3IbS8_SA_EEN4mpl_4int_ILi0EEEEENS0_3api6objectET_RKT0_RKT1_RKSt4pairIPKNS1_7keywordESW_ET2_
   fun:_ZN5boost6python13make_functionIPFbRSt6vectorIN4dust8documentESaIS4_EEP7_objectENS0_21default_call_policiesENS0_6detail8keywordsILm0EEENS_3mpl7vector3IbS7_S9_EEEENS0_3api6objectET_RKT0_RKT1_RKT2_
   fun:_ZN5boost6python6class_ISt6vectorIN4dust8documentESaIS4_EENS0_6detail13not_specifiedES8_S8_E8def_implIS6_PFbRS6_P7_objectENS7_10def_helperIPKcS8_S8_S8_EEEEvPT_SI_T0_RKT1_z
   fun:_ZN5boost6python6class_ISt6vectorIN4dust8documentESaIS4_EENS0_6detail13not_specifiedES8_S8_E3defIPFbRS6_P7_objectEEERS9_PKcT_
   fun:_ZNK5boost6python14indexing_suiteISt6vectorIN4dust8documentESaIS4_EENS0_6detail29final_vector_derived_policiesIS6_Lb0EEELb0ELb0ES4_mS4_E5visitINS0_6class_IS6_NS7_13not_specifiedESD_SD_EEEEvRT_
   fun:_ZN5boost6python18def_visitor_access5visitINS0_11def_visitorINS0_14indexing_suiteISt6vectorIN4dust8documentESaIS7_EENS0_6detail29final_vector_derived_policiesIS9_Lb0EEELb0ELb0ES7_mS7_EEEENS0_6class_IS9_NSA_13not_specifiedESG_SG_EEEEvRKT_RT0_
   fun:_ZNK5boost6python11def_visitorINS0_14indexing_suiteISt6vectorIN4dust8documentESaIS5_EENS0_6detail29final_vector_derived_policiesIS7_Lb0EEELb0ELb0ES5_mS5_EEE5visitINS0_6class_IS7_NS8_13not_specifiedESF_SF_EEEEvRT_
   fun:_ZN5boost6python6class_ISt6vectorIN4dust8documentESaIS4_EENS0_6detail13not_specifiedES8_S8_E3defINS0_14indexing_suiteIS6_NS7_29final_vector_derived_policiesIS6_Lb0EEELb0ELb0ES4_mS4_EEEERS9_RKNS0_11def_visitorIT_EE
   fun:_ZN11dust_server16init_module_DustEv
}
{
   <insert_a_suppression_name_here>
   Memcheck:Leak
   fun:_Znwm
   fun:_ZN5boost6python7objects11py_functionC2INS0_6detail6callerIPFvRSt6vectorIN4dust8documentESaIS8_EENS0_3api6objectEENS0_21default_call_policiesENS_3mpl7vector3IvSB_SD_EEEEEERKT_
   fun:_ZN5boost6python7objects11py_functionC1INS0_6detail6callerIPFvRSt6vectorIN4dust8documentESaIS8_EENS0_3api6objectEENS0_21default_call_policiesENS_3mpl7vector3IvSB_SD_EEEEEERKT_
   fun:_ZN5boost6python6detail17make_function_auxIPFvRSt6vectorIN4dust8documentESaIS5_EENS0_3api6objectEENS0_21default_call_policiesENS_3mpl7vector3IvS8_SA_EEN4mpl_4int_ILi0EEEEESA_T_RKT0_RKT1_RKSt4pairIPKNS1_7keywordESU_ET2_
   fun:_ZN5boost6python13make_functionIPFvRSt6vectorIN4dust8documentESaIS4_EENS0_3api6objectEENS0_21default_call_policiesENS0_6detail8keywordsILm0EEENS_3mpl7vector3IvS7_S9_EEEES9_T_RKT0_RKT1_RKT2_
   fun:_ZN5boost6python6class_ISt6vectorIN4dust8documentESaIS4_EENS0_6detail13not_specifiedES8_S8_E8def_implIS6_PFvRS6_NS0_3api6objectEENS7_10def_helperIPKcS8_S8_S8_EEEEvPT_SI_T0_RKT1_z
   fun:_ZN5boost6python6class_ISt6vectorIN4dust8documentESaIS4_EENS0_6detail13not_specifiedES8_S8_E3defIPFvRS6_NS0_3api6objectEEEERS9_PKcT_
   fun:_ZN5boost6python21vector_indexing_suiteISt6vectorIN4dust8documentESaIS4_EELb0ENS0_6detail29final_vector_derived_policiesIS6_Lb0EEEE13extension_defINS0_6class_IS6_NS7_13not_specifiedESD_SD_EEEEvRT_
   fun:_ZNK5boost6python14indexing_suiteISt6vectorIN4dust8documentESaIS4_EENS0_6detail29final_vector_derived_policiesIS6_Lb0EEELb0ELb0ES4_mS4_E5visitINS0_6class_IS6_NS7_13not_specifiedESD_SD_EEEEvRT_
   fun:_ZN5boost6python18def_visitor_access5visitINS0_11def_visitorINS0_14indexing_suiteISt6vectorIN4dust8documentESaIS7_EENS0_6detail29final_vector_derived_policiesIS9_Lb0EEELb0ELb0ES7_mS7_EEEENS0_6class_IS9_NSA_13not_specifiedESG_SG_EEEEvRKT_RT0_
   fun:_ZNK5boost6python11def_visitorINS0_14indexing_suiteISt6vectorIN4dust8documentESaIS5_EENS0_6detail29final_vector_derived_policiesIS7_Lb0EEELb0ELb0ES5_mS5_EEE5visitINS0_6class_IS7_NS8_13not_specifiedESF_SF_EEEEvRT_
   fun:_ZN5boost6python6class_ISt6vectorIN4dust8documentESaIS4_EENS0_6detail13not_specifiedES8_S8_E3defINS0_14indexing_suiteIS6_NS7_29final_vector_derived_policiesIS6_Lb0EEELb0ELb0ES4_mS4_EEEERS9_RKNS0_11def_visitorIT_EE
}
{
   <insert_a_suppression_name_here>
   Memcheck:Leak
   fun:_Znwm
   fun:_ZN5boost6python7objects11py_functionC2INS0_6detail6callerIMN4dust8documentEKFS7_RKSsENS0_21default_call_policiesENS_3mpl7vector3IS7_RS7_S9_EEEEEERKT_
   fun:_ZN5boost6python7objects11py_functionC1INS0_6detail6callerIMN4dust8documentEKFS7_RKSsENS0_21default_call_policiesENS_3mpl7vector3IS7_RS7_S9_EEEEEERKT_
   fun:_ZN5boost6python6detail17make_function_auxIMN4dust8documentEKFS4_RKSsENS0_21default_call_policiesENS_3mpl7vector3IS4_RS4_S6_EEN4mpl_4int_ILi0EEEEENS0_3api6objectET_RKT0_RKT1_RKSt4pairIPKNS1_7keywordEST_ET2_
   fun:_ZN5boost6python13make_functionIMN4dust8documentEKFS3_RKSsENS0_21default_call_policiesENS0_6detail8keywordsILm0EEENS_3mpl7vector3IS3_RS3_S5_EEEENS0_3api6objectET_RKT0_RKT1_RKT2_
   fun:_ZN5boost6python6class_IN4dust8documentENS0_6detail13not_specifiedES5_S5_E8def_implIS3_MS3_KFS3_RKSsENS4_10def_helperIPKcS5_S5_S5_EEEEvPT_SE_T0_RKT1_z
   fun:_ZN5boost6python6class_IN4dust8documentENS0_6detail13not_specifiedES5_S5_E3defIMS3_KFS3_RKSsEEERS6_PKcT_
   fun:_ZN11dust_server16init_module_DustEv
   fun:_ZN5boost6python21handle_exception_implENS_9function0IvEE
   fun:_ZN5boost6python6detail11init_moduleEPKcPFvvE
   fun:initDust
   fun:_ZN11dust_server17PythonInitializerC2Ev
}
{
   <insert_a_suppression_name_here>
   Memcheck:Leak
   fun:_Znwm
   fun:_ZN5boost6python7objects11py_functionC2INS0_6detail6callerIMN4dust8documentEFvRKSsENS0_21default_call_policiesENS_3mpl7vector3IvRS7_S9_EEEEEERKT_
   fun:_ZN5boost6python7objects11py_functionC1INS0_6detail6callerIMN4dust8documentEFvRKSsENS0_21default_call_policiesENS_3mpl7vector3IvRS7_S9_EEEEEERKT_
   fun:_ZN5boost6python6detail17make_function_auxIMN4dust8documentEFvRKSsENS0_21default_call_policiesENS_3mpl7vector3IvRS4_S6_EEN4mpl_4int_ILi0EEEEENS0_3api6objectET_RKT0_RKT1_RKSt4pairIPKNS1_7keywordEST_ET2_
   fun:_ZN5boost6python13make_functionIMN4dust8documentEFvRKSsENS0_21default_call_policiesENS0_6detail8keywordsILm0EEENS_3mpl7vector3IvRS3_S5_EEEENS0_3api6objectET_RKT0_RKT1_RKT2_
   fun:_ZN5boost6python6class_IN4dust8documentENS0_6detail13not_specifiedES5_S5_E8def_implIS3_MS3_FvRKSsENS4_10def_helperIPKcS5_S5_S5_EEEEvPT_SE_T0_RKT1_z
   fun:_ZN5boost6python6class_IN4dust8documentENS0_6detail13not_specifiedES5_S5_E3defIMS3_FvRKSsEEERS6_PKcT_
   fun:_ZN11dust_server16init_module_DustEv
   fun:_ZN5boost6python21handle_exception_implENS_9function0IvEE
   fun:_ZN5boost6python6detail11init_moduleEPKcPFvvE
   fun:initDust
   fun:_ZN11dust_server17PythonInitializerC2Ev
}
{
   <insert_a_suppression_name_here>
   Memcheck:Leak
   fun:_Znwm
   fun:_ZN5boost6python7objects11py_functionC2INS0_6detail6callerIMN4dust8documentEKFSsvENS0_21default_call_policiesENS_3mpl7vector2ISsRS7_EEEEEERKT_
   fun:_ZN5boost6python7objects11py_functionC1INS0_6detail6callerIMN4dust8documentEKFSsvENS0_21default_call_policiesENS_3mpl7vector2ISsRS7_EEEEEERKT_
   fun:_ZN5boost6python6detail17make_function_auxIMN4dust8documentEKFSsvENS0_21default_call_policiesENS_3mpl7vector2ISsRS4_EEN4mpl_4int_ILi0EEEEENS0_3api6objectET_RKT0_RKT1_RKSt4pairIPKNS1_7keywordESR_ET2_
   fun:_ZN5boost6python13make_functionIMN4dust8documentEKFSsvENS0_21default_call_policiesENS0_6detail8keywordsILm0EEENS_3mpl7vector2ISsRS3_EEEENS0_3api6objectET_RKT0_RKT1_RKT2_
   fun:_ZN5boost6python6class_IN4dust8documentENS0_6detail13not_specifiedES5_S5_E8def_implIS3_MS3_KFSsvENS4_10def_helperIPKcS5_S5_S5_EEEEvPT_SC_T0_RKT1_z
   fun:_ZN5boost6python6class_IN4dust8documentENS0_6detail13not_specifiedES5_S5_E3defIMS3_KFSsvEEERS6_PKcT_
   fun:_ZN11dust_server16init_module_DustEv
   fun:_ZN5boost6python21handle_exception_implENS_9function0IvEE
   fun:_ZN5boost6python6detail11init_moduleEPKcPFvvE
   fun:initDust
   fun:_ZN11dust_server17PythonInitializerC2Ev
}
{
   <insert_a_suppression_name_here>
   Memcheck:Leak
   fun:_Znwm
   fun:_ZN5boost6python7objects11py_functionC2INS0_6detail6callerIMN4dust8documentEKFbvENS0_21default_call_policiesENS_3mpl7vector2IbRS7_EEEEEERKT_
   fun:_ZN5boost6python7objects11py_functionC1INS0_6detail6callerIMN4dust8documentEKFbvENS0_21default_call_policiesENS_3mpl7vector2IbRS7_EEEEEERKT_
   fun:_ZN5boost6python6detail17make_function_auxIMN4dust8documentEKFbvENS0_21default_call_policiesENS_3mpl7vector2IbRS4_EEN4mpl_4int_ILi0EEEEENS0_3api6objectET_RKT0_RKT1_RKSt4pairIPKNS1_7keywordESR_ET2_
   fun:_ZN5boost6python13make_functionIMN4dust8documentEKFbvENS0_21default_call_policiesENS0_6detail8keywordsILm0EEENS_3mpl7vector2IbRS3_EEEENS0_3api6objectET_RKT0_RKT1_RKT2_
   fun:_ZN5boost6python6class_IN4dust8documentENS0_6detail13not_specifiedES5_S5_E8def_implIS3_MS3_KFbvENS4_10def_helperIPKcS5_S5_S5_EEEEvPT_SC_T0_RKT1_z
   fun:_ZN5boost6python6class_IN4dust8documentENS0_6detail13not_specifiedES5_S5_E3defIMS3_KFbvEEERS6_PKcT_
   fun:_ZN11dust_server16init_module_DustEv
   fun:_ZN5boost6python21handle_exception_implENS_9function0IvEE
   fun:_ZN5boost6python6detail11init_moduleEPKcPFvvE
   fun:initDust
   fun:_ZN11dust_server17PythonInitializerC2Ev
}
{
   <insert_a_suppression_name_here>
   Memcheck:Leak
   fun:_Znwm
   fun:_ZN5boost6python7objects11py_functionC2INS0_6detail6callerIMN4dust8documentEFvvENS0_21default_call_policiesENS_3mpl7vector2IvRS7_EEEEEERKT_
   fun:_ZN5boost6python7objects11py_functionC1INS0_6detail6callerIMN4dust8documentEFvvENS0_21default_call_policiesENS_3mpl7vector2IvRS7_EEEEEERKT_
   fun:_ZN5boost6python6detail17make_function_auxIMN4dust8documentEFvvENS0_21default_call_policiesENS_3mpl7vector2IvRS4_EEN4mpl_4int_ILi0EEEEENS0_3api6objectET_RKT0_RKT1_RKSt4pairIPKNS1_7keywordESR_ET2_
   fun:_ZN5boost6python13make_functionIMN4dust8documentEFvvENS0_21default_call_policiesENS0_6detail8keywordsILm0EEENS_3mpl7vector2IvRS3_EEEENS0_3api6objectET_RKT0_RKT1_RKT2_
   fun:_ZN5boost6python6class_IN4dust8documentENS0_6detail13not_specifiedES5_S5_E8def_implIS3_MS3_FvvENS4_10def_helperIPKcS5_S5_S5_EEEEvPT_SC_T0_RKT1_z
   fun:_ZN5boost6python6class_IN4dust8documentENS0_6detail13not_specifiedES5_S5_E3defIMS3_FvvEEERS6_PKcT_
   fun:_ZN11dust_server16init_module_DustEv
   fun:_ZN5boost6python21handle_exception_implENS_9function0IvEE
   fun:_ZN5boost6python6detail11init_moduleEPKcPFvvE
   fun:initDust
   fun:_ZN11dust_server17PythonInitializerC2Ev
}
{
   <insert_a_suppression_name_here>
   Memcheck:Leak
   fun:_Znwm
   fun:_ZN5boost6python7objects11py_functionC2INS0_6detail6callerIMN4dust8documentEKFSt6vectorIS7_SaIS7_EEvENS0_21default_call_policiesENS_3mpl7vector2ISA_RS7_EEEEEERKT_
   fun:_ZN5boost6python7objects11py_functionC1INS0_6detail6callerIMN4dust8documentEKFSt6vectorIS7_SaIS7_EEvENS0_21default_call_policiesENS_3mpl7vector2ISA_RS7_EEEEEERKT_
   fun:_ZN5boost6python6detail17make_function_auxIMN4dust8documentEKFSt6vectorIS4_SaIS4_EEvENS0_21default_call_policiesENS_3mpl7vector2IS7_RS4_EEN4mpl_4int_ILi0EEEEENS0_3api6objectET_RKT0_RKT1_RKSt4pairIPKNS1_7keywordESU_ET2_
   fun:_ZN5boost6python13make_functionIMN4dust8documentEKFSt6vectorIS3_SaIS3_EEvENS0_21default_call_policiesENS0_6detail8keywordsILm0EEENS_3mpl7vector2IS6_RS3_EEEENS0_3api6objectET_RKT0_RKT1_RKT2_
   fun:_ZN5boost6python6class_IN4dust8documentENS0_6detail13not_specifiedES5_S5_E8def_implIS3_MS3_KFSt6vectorIS3_SaIS3_EEvENS4_10def_helperIPKcS5_S5_S5_EEEEvPT_SF_T0_RKT1_z
   fun:_ZN5boost6python6class_IN4dust8documentENS0_6detail13not_specifiedES5_S5_E3defIMS3_KFSt6vectorIS3_SaIS3_EEvEEERS6_PKcT_
   fun:_ZN11dust_server16init_module_DustEv
   fun:_ZN5boost6python21handle_exception_implENS_9function0IvEE
   fun:_ZN5boost6python6detail11init_moduleEPKcPFvvE
   fun:initDust
   fun:_ZN11dust_server17PythonInitializerC2Ev
}
{
   <insert_a_suppression_name_here>
   Memcheck:Leak
   fun:malloc
   fun:PyObject_Malloc
   fun:PyString_FromString
   obj:/usr/lib64/libpython2.7.so.1.0
   fun:PyFile_FromFile
   fun:_PySys_Init
   fun:Py_InitializeEx
   fun:_ZN11dust_server17PythonInitializerC2Ev
   fun:_ZN11dust_server17PythonInitializerC1Ev
   fun:__cxx_global_var_init25
   fun:_GLOBAL__I_a
   fun:__libc_csu_init
}
{
   <insert_a_suppression_name_here>
   Memcheck:Leak
   fun:malloc
   fun:PyObject_Malloc
   fun:PyString_FromStringAndSize
   obj:/usr/lib64/libpython2.7.so.1.0
   obj:/usr/lib64/libpython2.7.so.1.0
   obj:/usr/lib64/libpython2.7.so.1.0
   fun:PyMarshal_ReadObjectFromString
   fun:PyMarshal_ReadLastObjectFromFile
   obj:/usr/lib64/libpython2.7.so.1.0
   obj:/usr/lib64/libpython2.7.so.1.0
   obj:/usr/lib64/libpython2.7.so.1.0
   obj:/usr/lib64/libpython2.7.so.1.0
}
{
   <insert_a_suppression_name_here>
   Memcheck:Leak
   fun:malloc
   fun:PyObject_Malloc
   fun:PyString_FromStringAndSize
   obj:/usr/lib64/libpython2.7.so.1.0
   obj:/usr/lib64/libpython2.7.so.1.0
   fun:PyEval_EvalFrameEx
   fun:PyEval_EvalFrameEx
   fun:PyEval_EvalCodeEx
   fun:PyEval_EvalCode
   fun:PyImport_ExecCodeModuleEx
   obj:/usr/lib64/libpython2.7.so.1.0
   obj:/usr/lib64/libpython2.7.so.1.0
}
{
   <insert_a_suppression_name_here>
   Memcheck:Leak
   fun:malloc
   fun:PyObject_Malloc
   fun:PyString_FromStringAndSize
   obj:/usr/lib64/libpython2.7.so.1.0
   obj:/usr/lib64/libpython2.7.so.1.0
   obj:/usr/lib64/libpython2.7.so.1.0
   obj:/usr/lib64/libpython2.7.so.1.0
   obj:/usr/lib64/libpython2.7.so.1.0
   fun:PyMarshal_ReadObjectFromString
   fun:PyMarshal_ReadLastObjectFromFile
   obj:/usr/lib64/libpython2.7.so.1.0
   obj:/usr/lib64/libpython2.7.so.1.0
}
{
   <insert_a_suppression_name_here>
   Memcheck:Leak
   fun:malloc
   fun:PyObject_Malloc
   fun:PyString_FromString
   fun:_ZN5boost6python6detail8str_baseC1EPKc
   fun:_ZN5boost6python7objects8function16add_to_namespaceERKNS0_3api6objectEPKcS6_S8_
   fun:_ZN5boost6python6class_IN4dust8documentENS0_6detail13not_specifiedES5_S5_E8def_implIS3_MS3_KFSsvENS4_10def_helperIPKcS5_S5_S5_EEEEvPT_SC_T0_RKT1_z
   fun:_ZN5boost6python6class_IN4dust8documentENS0_6detail13not_specifiedES5_S5_E3defIMS3_KFSsvEEERS6_PKcT_
   fun:_ZN11dust_server16init_module_DustEv
   fun:_ZN5boost6python21handle_exception_implENS_9function0IvEE
   fun:_ZN5boost6python6detail11init_moduleEPKcPFvvE
   fun:initDust
   fun:_ZN11dust_server17PythonInitializerC2Ev
}
{
   <insert_a_suppression_name_here>
   Memcheck:Leak
   fun:_Znwm
   fun:_ZN5boost6python7objects11py_functionC2INS0_6detail6callerINS1_6detail8py_iter_ISt6vectorIN4dust8documentESaISA_EEN9__gnu_cxx17__normal_iteratorIPSA_SC_EENS_3_bi16protected_bind_tINSH_6bind_tISG_PFSG_RSC_ENSH_5list1INS_3argILi1EEEEEEEEESS_NS0_25return_internal_referenceILm1ENS0_21default_call_policiesEEEEESU_NS_3mpl7vector2INS1_14iterator_rangeISV_SG_EENS0_14back_referenceISK_EEEEEEEERKT_
   fun:_ZN5boost6python7objects11py_functionC1INS0_6detail6callerINS1_6detail8py_iter_ISt6vectorIN4dust8documentESaISA_EEN9__gnu_cxx17__normal_iteratorIPSA_SC_EENS_3_bi16protected_bind_tINSH_6bind_tISG_PFSG_RSC_ENSH_5list1INS_3argILi1EEEEEEEEESS_NS0_25return_internal_referenceILm1ENS0_21default_call_policiesEEEEESU_NS_3mpl7vector2INS1_14iterator_rangeISV_SG_EENS0_14back_referenceISK_EEEEEEEERKT_
   fun:_ZN5boost6python6detail17make_function_auxINS0_7objects6detail8py_iter_ISt6vectorIN4dust8documentESaIS8_EEN9__gnu_cxx17__normal_iteratorIPS8_SA_EENS_3_bi16protected_bind_tINSF_6bind_tISE_PFSE_RSA_ENSF_5list1INS_3argILi1EEEEEEEEESQ_NS0_25return_internal_referenceILm1ENS0_21default_call_policiesEEEEESS_NS_3mpl7vector2INS3_14iterator_rangeIST_SE_EENS0_14back_referenceISI_EEEEEENS0_3api6objectET_RKT0_RKT1_
   fun:_ZN5boost6python6detail22make_function_dispatchINS0_7objects6detail8py_iter_ISt6vectorIN4dust8documentESaIS8_EEN9__gnu_cxx17__normal_iteratorIPS8_SA_EENS_3_bi16protected_bind_tINSF_6bind_tISE_PFSE_RSA_ENSF_5list1INS_3argILi1EEEEEEEEESQ_NS0_25return_internal_referenceILm1ENS0_21default_call_policiesEEEEESS_NS_3mpl7vector2INS3_14iterator_rangeIST_SE_EENS0_14back_referenceISI_EEEEEENS0_3api6objectET_RKT0_RKT1_N4mpl_5bool_ILb0EEE
   fun:_ZN5boost6python13make_functionINS0_7objects6detail8py_iter_ISt6vectorIN4dust8documentESaIS7_EEN9__gnu_cxx17__normal_iteratorIPS7_S9_EENS_3_bi16protected_bind_tINSE_6bind_tISD_PFSD_RS9_ENSE_5list1INS_3argILi1EEEEEEEEESP_NS0_25return_internal_referenceILm1ENS0_21default_call_policiesEEEEESR_NS_3mpl7vector2INS2_14iterator_rangeISS_SD_EENS0_14back_referenceISH_EEEEEENS0_3api6objectET_RKT0_RKT1_
   fun:_ZN5boost6python7objects6detail22make_iterator_functionISt6vectorIN4dust8documentESaIS6_EEN9__gnu_cxx17__normal_iteratorIPS6_S8_EENS0_25return_internal_referenceILm1ENS0_21default_call_policiesEEENS_3_bi16protected_bind_tINSG_6bind_tISC_PFSC_RS8_ENSG_5list1INS_3argILi1EEEEEEEEESR_EENS0_3api6objectERKT2_RKT3_RKT1_PFRKT0_vEPNS_4typeIT_EEi
   fun:_ZN5boost6python7objects22make_iterator_functionISt6vectorIN4dust8documentESaIS5_EENS0_25return_internal_referenceILm1ENS0_21default_call_policiesEEENS_3_bi16protected_bind_tINSB_6bind_tIN9__gnu_cxx17__normal_iteratorIPS5_S7_EEPFSH_RS7_ENSB_5list1INS_3argILi1EEEEEEEEESQ_EENS0_3api6objectERKT1_RKT2_RKT0_PNS_4typeIT_EE
   fun:_ZN5boost6python6detail13make_iteratorISt6vectorIN4dust8documentESaIS5_EEPFN9__gnu_cxx17__normal_iteratorIPS5_S7_EERS7_ESE_NS0_25return_internal_referenceILm1ENS0_21default_call_policiesEEEEENS0_3api6objectET0_T1_T2_PFRT_vE
   fun:_ZN5boost6python5rangeINS0_25return_internal_referenceILm1ENS0_21default_call_policiesEEEPFN9__gnu_cxx17__normal_iteratorIPN4dust8documentESt6vectorIS8_SaIS8_EEEERSC_ESG_EENS0_3api6objectET0_T1_PT_
   fun:_ZN5boost6python8iteratorISt6vectorIN4dust8documentESaIS4_EENS0_25return_internal_referenceILm1ENS0_21default_call_policiesEEEEC2Ev
   fun:_ZN5boost6python8iteratorISt6vectorIN4dust8documentESaIS4_EENS0_25return_internal_referenceILm1ENS0_21default_call_policiesEEEEC1Ev
}
{
   <insert_a_suppression_name_here>
   Memcheck:Leak
   fun:malloc
   fun:PyObject_Malloc
   fun:PyString_FromString
   fun:PyDict_SetItemString
   fun:PySys_SetPath
   fun:Py_InitializeEx
   fun:_ZN11dust_server17PythonInitializerC2Ev
   fun:_ZN11dust_server17PythonInitializerC1Ev
   fun:__cxx_global_var_init25
   fun:_GLOBAL__I_a
   fun:__libc_csu_init
   fun:(below main)
}
{
   <insert_a_suppression_name_here>
   Memcheck:Leak
   fun:malloc
   fun:PyObject_Malloc
   fun:PyString_FromString
   fun:PyModule_New
   fun:PyImport_AddModule
   fun:Py_InitModule4_64
   fun:_ZN5boost6python6detail11init_moduleEPKcPFvvE
   fun:initDust
   fun:_ZN11dust_server17PythonInitializerC2Ev
   fun:_ZN11dust_server17PythonInitializerC1Ev
   fun:__cxx_global_var_init25
   fun:_GLOBAL__I_a
}
{
   <insert_a_suppression_name_here>
   Memcheck:Leak
   fun:malloc
   fun:PyObject_Malloc
   fun:PyString_FromString
   fun:PyDict_SetItemString
   fun:_PySys_Init
   fun:Py_InitializeEx
   fun:_ZN11dust_server17PythonInitializerC2Ev
   fun:_ZN11dust_server17PythonInitializerC1Ev
   fun:__cxx_global_var_init25
   fun:_GLOBAL__I_a
   fun:__libc_csu_init
   fun:(below main)
}
{
   <insert_a_suppression_name_here>
   Memcheck:Leak
   fun:malloc
   fun:PyObject_Malloc
   fun:PyString_FromString
   fun:PyDict_SetItemString
   obj:/usr/lib64/libpython2.7.so.1.0
   fun:_PyCodec_Lookup
   obj:/usr/lib64/libpython2.7.so.1.0
   fun:Py_InitializeEx
   fun:_ZN11dust_server17PythonInitializerC2Ev
   fun:_ZN11dust_server17PythonInitializerC1Ev
   fun:__cxx_global_var_init25
   fun:_GLOBAL__I_a
}
{
   <insert_a_suppression_name_here>
   Memcheck:Leak
   fun:malloc
   fun:PyObject_Malloc
   fun:PyString_FromString
   fun:_ZN5boost6python6detail8str_baseC1EPKc
   fun:_ZN5boost6python7objects8function16add_to_namespaceERKNS0_3api6objectEPKcS6_S8_
   fun:_ZN5boost6python6class_IN4dust8documentENS0_6detail13not_specifiedES5_S5_E8def_implIS3_MS3_FvRKSsENS4_10def_helperIPKcS5_S5_S5_EEEEvPT_SE_T0_RKT1_z
   fun:_ZN5boost6python6class_IN4dust8documentENS0_6detail13not_specifiedES5_S5_E3defIMS3_FvRKSsEEERS6_PKcT_
   fun:_ZN11dust_server16init_module_DustEv
   fun:_ZN5boost6python21handle_exception_implENS_9function0IvEE
   fun:_ZN5boost6python6detail11init_moduleEPKcPFvvE
   fun:initDust
   fun:_ZN11dust_server17PythonInitializerC2Ev
}
{
   <insert_a_suppression_name_here>
   Memcheck:Leak
   fun:malloc
   fun:PyObject_Malloc
   fun:PyString_FromString
   fun:_ZN5boost6python6detail8str_baseC1EPKc
   fun:_ZN5boost6python7objects8function16add_to_namespaceERKNS0_3api6objectEPKcS6_S8_
   fun:_ZN5boost6python6class_IN4dust8documentENS0_6detail13not_specifiedES5_S5_E8def_implIS3_MS3_KFbvENS4_10def_helperIPKcS5_S5_S5_EEEEvPT_SC_T0_RKT1_z
   fun:_ZN5boost6python6class_IN4dust8documentENS0_6detail13not_specifiedES5_S5_E3defIMS3_KFbvEEERS6_PKcT_
   fun:_ZN11dust_server16init_module_DustEv
   fun:_ZN5boost6python21handle_exception_implENS_9function0IvEE
   fun:_ZN5boost6python6detail11init_moduleEPKcPFvvE
   fun:initDust
   fun:_ZN11dust_server17PythonInitializerC2Ev
}
{
   <insert_a_suppression_name_here>
   Memcheck:Leak
   fun:malloc
   fun:PyObject_Malloc
   fun:PyString_FromString
   fun:_ZN5boost6python6detail8str_baseC1EPKc
   fun:_ZN5boost6python7objects8function16add_to_namespaceERKNS0_3api6objectEPKcS6_S8_
   fun:_ZN5boost6python6class_IN4dust8documentENS0_6detail13not_specifiedES5_S5_E8def_implIS3_MS3_FvvENS4_10def_helperIPKcS5_S5_S5_EEEEvPT_SC_T0_RKT1_z
   fun:_ZN5boost6python6class_IN4dust8documentENS0_6detail13not_specifiedES5_S5_E3defIMS3_FvvEEERS6_PKcT_
   fun:_ZN11dust_server16init_module_DustEv
   fun:_ZN5boost6python21handle_exception_implENS_9function0IvEE
   fun:_ZN5boost6python6detail11init_moduleEPKcPFvvE
   fun:initDust
   fun:_ZN11dust_server17PythonInitializerC2Ev
}
{
   <insert_a_suppression_name_here>
   Memcheck:Leak
   fun:malloc
   fun:PyObject_Malloc
   fun:PyString_FromString
   fun:_ZN5boost6python6detail8str_baseC1EPKc
   fun:_ZN5boost6python7objects8function16add_to_namespaceERKNS0_3api6objectEPKcS6_S8_
   fun:_ZN5boost6python6class_ISt6vectorIN4dust8documentESaIS4_EENS0_6detail13not_specifiedES8_S8_E8def_implIS6_PFvRS6_NS0_3api6objectEENS7_10def_helperIPKcS8_S8_S8_EEEEvPT_SI_T0_RKT1_z
   fun:_ZN5boost6python6class_ISt6vectorIN4dust8documentESaIS4_EENS0_6detail13not_specifiedES8_S8_E3defIPFvRS6_NS0_3api6objectEEEERS9_PKcT_
   fun:_ZN5boost6python21vector_indexing_suiteISt6vectorIN4dust8documentESaIS4_EELb0ENS0_6detail29final_vector_derived_policiesIS6_Lb0EEEE13extension_defINS0_6class_IS6_NS7_13not_specifiedESD_SD_EEEEvRT_
   fun:_ZNK5boost6python14indexing_suiteISt6vectorIN4dust8documentESaIS4_EENS0_6detail29final_vector_derived_policiesIS6_Lb0EEELb0ELb0ES4_mS4_E5visitINS0_6class_IS6_NS7_13not_specifiedESD_SD_EEEEvRT_
   fun:_ZN5boost6python18def_visitor_access5visitINS0_11def_visitorINS0_14indexing_suiteISt6vectorIN4dust8documentESaIS7_EENS0_6detail29final_vector_derived_policiesIS9_Lb0EEELb0ELb0ES7_mS7_EEEENS0_6class_IS9_NSA_13not_specifiedESG_SG_EEEEvRKT_RT0_
   fun:_ZNK5boost6python11def_visitorINS0_14indexing_suiteISt6vectorIN4dust8documentESaIS5_EENS0_6detail29final_vector_derived_policiesIS7_Lb0EEELb0ELb0ES5_mS5_EEE5visitINS0_6class_IS7_NS8_13not_specifiedESF_SF_EEEEvRT_
   fun:_ZN5boost6python6class_ISt6vectorIN4dust8documentESaIS4_EENS0_6detail13not_specifiedES8_S8_E3defINS0_14indexing_suiteIS6_NS7_29final_vector_derived_policiesIS6_Lb0EEELb0ELb0ES4_mS4_EEEERS9_RKNS0_11def_visitorIT_EE
}
{
   <insert_a_suppression_name_here>
   Memcheck:Leak
   fun:malloc
   fun:PyObject_Malloc
   fun:PyString_FromString
   fun:PyDict_SetItemString
   fun:Py_InitializeEx
   fun:_ZN11dust_server17PythonInitializerC2Ev
   fun:_ZN11dust_server17PythonInitializerC1Ev
   fun:__cxx_global_var_init25
   fun:_GLOBAL__I_a
   fun:__libc_csu_init
   fun:(below main)
}
{
   <insert_a_suppression_name_here>
   Memcheck:Leak
   fun:malloc
   fun:PyObject_Malloc
   fun:PyString_FromString
   fun:_ZN5boost6python6detail8str_baseC1EPKc
   fun:_ZN5boost6python7objects8function16add_to_namespaceERKNS0_3api6objectEPKcS6_S8_
   fun:_ZN5boost6python6class_ISt6vectorIN4dust8documentESaIS4_EENS0_6detail13not_specifiedES8_S8_E8def_implIS6_PFmRS6_ENS7_10def_helperIPKcS8_S8_S8_EEEEvPT_SG_T0_RKT1_z
   fun:_ZN5boost6python6class_ISt6vectorIN4dust8documentESaIS4_EENS0_6detail13not_specifiedES8_S8_E3defIPFmRS6_EEERS9_PKcT_
   fun:_ZNK5boost6python14indexing_suiteISt6vectorIN4dust8documentESaIS4_EENS0_6detail29final_vector_derived_policiesIS6_Lb0EEELb0ELb0ES4_mS4_E5visitINS0_6class_IS6_NS7_13not_specifiedESD_SD_EEEEvRT_
   fun:_ZN5boost6python18def_visitor_access5visitINS0_11def_visitorINS0_14indexing_suiteISt6vectorIN4dust8documentESaIS7_EENS0_6detail29final_vector_derived_policiesIS9_Lb0EEELb0ELb0ES7_mS7_EEEENS0_6class_IS9_NSA_13not_specifiedESG_SG_EEEEvRKT_RT0_
   fun:_ZNK5boost6python11def_visitorINS0_14indexing_suiteISt6vectorIN4dust8documentESaIS5_EENS0_6detail29final_vector_derived_policiesIS7_Lb0EEELb0ELb0ES5_mS5_EEE5visitINS0_6class_IS7_NS8_13not_specifiedESF_SF_EEEEvRT_
   fun:_ZN5boost6python6class_ISt6vectorIN4dust8documentESaIS4_EENS0_6detail13not_specifiedES8_S8_E3defINS0_14indexing_suiteIS6_NS7_29final_vector_derived_policiesIS6_Lb0EEELb0ELb0ES4_mS4_EEEERS9_RKNS0_11def_visitorIT_EE
   fun:_ZN11dust_server16init_module_DustEv
}
{
   <insert_a_suppression_name_here>
   Memcheck:Leak
   fun:malloc
   fun:PyObject_Malloc
   fun:PyString_FromString
   fun:PyDict_SetItemString
   fun:Py_InitModule4_64
   fun:_PySys_Init
   fun:Py_InitializeEx
   fun:_ZN11dust_server17PythonInitializerC2Ev
   fun:_ZN11dust_server17PythonInitializerC1Ev
   fun:__cxx_global_var_init25
   fun:_GLOBAL__I_a
   fun:__libc_csu_init
}
{
   <insert_a_suppression_name_here>
   Memcheck:Leak
   fun:malloc
   fun:PyObject_Malloc
   fun:PyString_FromString
   fun:_ZN5boost6python6detail8str_baseC1EPKc
   fun:_ZN5boost6python7objects8function16add_to_namespaceERKNS0_3api6objectEPKcS6_S8_
   fun:_ZNK5boost6python3api16object_operatorsINS1_6objectEE5visitINS0_6class_IN4dust8documentENS0_6detail13not_specifiedESA_SA_EEPKcEEvRT_SD_RKNS9_10def_helperIT0_SA_SA_SA_EE
   fun:_ZN5boost6python18def_visitor_access5visitINS0_11def_visitorINS0_3api6objectEEENS0_6class_IN4dust8documentENS0_6detail13not_specifiedESB_SB_EENSA_10def_helperIPKcSB_SB_SB_EEEEvRKT_RT0_SF_RKT1_
   fun:_ZNK5boost6python11def_visitorINS0_3api6objectEE5visitINS0_6class_IN4dust8documentENS0_6detail13not_specifiedESA_SA_EENS9_10def_helperIPKcSA_SA_SA_EEEEvRT_SE_RKT0_
   fun:_ZN5boost6python6class_IN4dust8documentENS0_6detail13not_specifiedES5_S5_E8def_implIS3_NS4_10def_helperIPKcS5_S5_S5_EENS0_3api6objectESD_EEvPT_SA_T1_RKT0_PKNS0_11def_visitorIT2_EE
   fun:_ZN5boost6python6class_IN4dust8documentENS0_6detail13not_specifiedES5_S5_E19def_maybe_overloadsINS0_3api6objectEPKcEEvSB_T_RKT0_z
   fun:_ZN5boost6python6class_IN4dust8documentENS0_6detail13not_specifiedES5_S5_E3defINS0_3api6objectEPKcEERS6_SB_T_RKT0_
   fun:_ZN5boost6python6detail12def_init_auxINS0_6class_IN4dust8documentENS1_13not_specifiedES6_S6_EENS0_21default_call_policiesENS_3mpl7vector2ISt8weak_ptrINS4_15key_value_storeEESsEENS9_4sizeISE_EEEEvRT_RKT1_T2_RKT0_PKcRKSt4pairIPKNS1_7keywordESV_E
}
{
   <insert_a_suppression_name_here>
   Memcheck:Leak
   fun:malloc
   fun:PyObject_Malloc
   fun:PyString_FromString
   fun:_ZN5boost6python6detail8str_baseC1EPKc
   fun:_ZN5boost6python7objects8function16add_to_namespaceERKNS0_3api6objectEPKcS6_S8_
   fun:_ZN5boost6python6class_IN4dust8documentENS0_6detail13not_specifiedES5_S5_E8def_implIS3_MS3_KFSt6vectorIS3_SaIS3_EEvENS4_10def_helperIPKcS5_S5_S5_EEEEvPT_SF_T0_RKT1_z
   fun:_ZN5boost6python6class_IN4dust8documentENS0_6detail13not_specifiedES5_S5_E3defIMS3_KFSt6vectorIS3_SaIS3_EEvEEERS6_PKcT_
   fun:_ZN11dust_server16init_module_DustEv
   fun:_ZN5boost6python21handle_exception_implENS_9function0IvEE
   fun:_ZN5boost6python6detail11init_moduleEPKcPFvvE
   fun:initDust
   fun:_ZN11dust_server17PythonInitializerC2Ev
}
{
   <insert_a_suppression_name_here>
   Memcheck:Leak
   fun:malloc
   fun:PyObject_Malloc
   fun:PyString_FromString
   fun:_ZN5boost6python6detail8str_baseC1EPKc
   fun:_ZN5boost6python7objects8function16add_to_namespaceERKNS0_3api6objectEPKcS6_S8_
   fun:_ZNK5boost6python3api16object_operatorsINS1_6objectEE5visitINS0_6class_ISt6vectorIN4dust8documentESaIS9_EENS0_6detail13not_specifiedESD_SD_EEPKcEEvRT_SG_RKNSC_10def_helperIT0_SD_SD_SD_EE
   fun:_ZN5boost6python18def_visitor_access5visitINS0_11def_visitorINS0_3api6objectEEENS0_6class_ISt6vectorIN4dust8documentESaISA_EENS0_6detail13not_specifiedESE_SE_EENSD_10def_helperIPKcSE_SE_SE_EEEEvRKT_RT0_SI_RKT1_
   fun:_ZNK5boost6python11def_visitorINS0_3api6objectEE5visitINS0_6class_ISt6vectorIN4dust8documentESaIS9_EENS0_6detail13not_specifiedESD_SD_EENSC_10def_helperIPKcSD_SD_SD_EEEEvRT_SH_RKT0_
   fun:_ZN5boost6python6class_ISt6vectorIN4dust8documentESaIS4_EENS0_6detail13not_specifiedES8_S8_E8def_implIS6_NS7_10def_helperIPKcS8_S8_S8_EENS0_3api6objectESG_EEvPT_SD_T1_RKT0_PKNS0_11def_visitorIT2_EE
   fun:_ZN5boost6python6class_ISt6vectorIN4dust8documentESaIS4_EENS0_6detail13not_specifiedES8_S8_E19def_maybe_overloadsINS0_3api6objectEPKcEEvSE_T_RKT0_z
   fun:_ZN5boost6python6class_ISt6vectorIN4dust8documentESaIS4_EENS0_6detail13not_specifiedES8_S8_E3defINS0_3api6objectEPKcEERS9_SE_T_RKT0_
   fun:_ZN5boost6python6detail12def_init_auxINS0_6class_ISt6vectorIN4dust8documentESaIS6_EENS1_13not_specifiedES9_S9_EENS0_21default_call_policiesENS_3mpl7vector0IN4mpl_2naEEENSC_4sizeISG_EEEEvRT_RKT1_T2_RKT0_PKcRKSt4pairIPKNS1_7keywordESX_E
}
{
   <insert_a_suppression_name_here>
   Memcheck:Leak
   fun:malloc
   fun:PyObject_Malloc
   fun:PyString_FromString
   fun:_ZN5boost6python6detail8str_baseC1EPKc
   fun:_ZN5boost6python7objects8function16add_to_namespaceERKNS0_3api6objectEPKcS6_S8_
   fun:_ZNK5boost6python3api16object_operatorsINS1_6objectEE5visitINS0_6class_ISt6vectorIN4dust8documentESaIS9_EENS0_6detail13not_specifiedESD_SD_EEPKcEEvRT_SG_RKNSC_10def_helperIT0_SD_SD_SD_EE
   fun:_ZN5boost6python18def_visitor_access5visitINS0_11def_visitorINS0_3api6objectEEENS0_6class_ISt6vectorIN4dust8documentESaISA_EENS0_6detail13not_specifiedESE_SE_EENSD_10def_helperIPKcSE_SE_SE_EEEEvRKT_RT0_SI_RKT1_
   fun:_ZNK5boost6python11def_visitorINS0_3api6objectEE5visitINS0_6class_ISt6vectorIN4dust8documentESaIS9_EENS0_6detail13not_specifiedESD_SD_EENSC_10def_helperIPKcSD_SD_SD_EEEEvRT_SH_RKT0_
   fun:_ZN5boost6python6class_ISt6vectorIN4dust8documentESaIS4_EENS0_6detail13not_specifiedES8_S8_E8def_implIS6_NS7_10def_helperIPKcS8_S8_S8_EENS0_8iteratorIS6_NS0_25return_internal_referenceILm1ENS0_21default_call_policiesEEEEENS0_3api6objectEEEvPT_SD_T1_RKT0_PKNS0_11def_visitorIT2_EE
   fun:_ZN5boost6python6class_ISt6vectorIN4dust8documentESaIS4_EENS0_6detail13not_specifiedES8_S8_E3defINS0_8iteratorIS6_NS0_25return_internal_referenceILm1ENS0_21default_call_policiesEEEEEEERS9_PKcT_
   fun:_ZNK5boost6python14indexing_suiteISt6vectorIN4dust8documentESaIS4_EENS0_6detail29final_vector_derived_policiesIS6_Lb0EEELb0ELb0ES4_mS4_E5visitINS0_6class_IS6_NS7_13not_specifiedESD_SD_EEEEvRT_
   fun:_ZN5boost6python18def_visitor_access5visitINS0_11def_visitorINS0_14indexing_suiteISt6vectorIN4dust8documentESaIS7_EENS0_6detail29final_vector_derived_policiesIS9_Lb0EEELb0ELb0ES7_mS7_EEEENS0_6class_IS9_NSA_13not_specifiedESG_SG_EEEEvRKT_RT0_
}
{
   <insert_a_suppression_name_here>
   Memcheck:Leak
   fun:malloc
   fun:PyObject_Malloc
   fun:PyString_FromString
   fun:_ZN5boost6python7objects10class_baseC1EPKcmPKNS0_9type_infoES4_
   fun:_ZN5boost6python6class_IN4dust8documentENS0_6detail13not_specifiedES5_S5_EC2INS0_4initISt8weak_ptrINS2_15key_value_storeEESsN4mpl_5void_ESD_SD_SD_SD_SD_SD_SD_SD_SD_SD_SD_SD_EEEEPKcRKNS0_9init_baseIT_EE
   fun:_ZN5boost6python6class_IN4dust8documentENS0_6detail13not_specifiedES5_S5_EC1INS0_4initISt8weak_ptrINS2_15key_value_storeEESsN4mpl_5void_ESD_SD_SD_SD_SD_SD_SD_SD_SD_SD_SD_SD_EEEEPKcRKNS0_9init_baseIT_EE
   fun:_ZN11dust_server16init_module_DustEv
   fun:_ZN5boost6python21handle_exception_implENS_9function0IvEE
   fun:_ZN5boost6python6detail11init_moduleEPKcPFvvE
   fun:initDust
   fun:_ZN11dust_server17PythonInitializerC2Ev
   fun:_ZN11dust_server17PythonInitializerC1Ev
}
{
   <insert_a_suppression_name_here>
   Memcheck:Leak
   fun:malloc
   fun:PyObject_Malloc
   fun:PyString_FromString
   fun:_ZN5boost6python7objects10class_baseC1EPKcmPKNS0_9type_infoES4_
   fun:_ZN5boost6python6class_ISt6vectorIN4dust8documentESaIS4_EENS0_6detail13not_specifiedES8_S8_EC2EPKcSB_
   fun:_ZN5boost6python6class_ISt6vectorIN4dust8documentESaIS4_EENS0_6detail13not_specifiedES8_S8_EC1EPKcSB_
   fun:_ZN11dust_server16init_module_DustEv
   fun:_ZN5boost6python21handle_exception_implENS_9function0IvEE
   fun:_ZN5boost6python6detail11init_moduleEPKcPFvvE
   fun:initDust
   fun:_ZN11dust_server17PythonInitializerC2Ev
   fun:_ZN11dust_server17PythonInitializerC1Ev
}
{
   <insert_a_suppression_name_here>
   Memcheck:Leak
   fun:malloc
   fun:PyObject_Malloc
   fun:PyString_FromString
   fun:_ZN5boost6python6detail8str_baseC1EPKc
   fun:_ZN5boost6python7objects8function16add_to_namespaceERKNS0_3api6objectEPKcS6_S8_
   fun:_ZN5boost6python6class_IN4dust8documentENS0_6detail13not_specifiedES5_S5_E8def_implIS3_MS3_KFS3_RKSsENS4_10def_helperIPKcS5_S5_S5_EEEEvPT_SE_T0_RKT1_z
   fun:_ZN5boost6python6class_IN4dust8documentENS0_6detail13not_specifiedES5_S5_E3defIMS3_KFS3_RKSsEEERS6_PKcT_
   fun:_ZN11dust_server16init_module_DustEv
   fun:_ZN5boost6python21handle_exception_implENS_9function0IvEE
   fun:_ZN5boost6python6detail11init_moduleEPKcPFvvE
   fun:initDust
   fun:_ZN11dust_server17PythonInitializerC2Ev
}
{
   <insert_a_suppression_name_here>
   Memcheck:Leak
   fun:malloc
   fun:PyObject_Malloc
   fun:PyString_FromString
   fun:_ZN5boost6python6detail8str_baseC1EPKc
   fun:_ZN5boost6python7objects8function16add_to_namespaceERKNS0_3api6objectEPKcS6_S8_
   fun:_ZN5boost6python6class_ISt6vectorIN4dust8documentESaIS4_EENS0_6detail13not_specifiedES8_S8_E8def_implIS6_PFvRS6_P7_objectSD_ENS7_10def_helperIPKcS8_S8_S8_EEEEvPT_SI_T0_RKT1_z
   fun:_ZN5boost6python6class_ISt6vectorIN4dust8documentESaIS4_EENS0_6detail13not_specifiedES8_S8_E3defIPFvRS6_P7_objectSD_EEERS9_PKcT_
   fun:_ZNK5boost6python14indexing_suiteISt6vectorIN4dust8documentESaIS4_EENS0_6detail29final_vector_derived_policiesIS6_Lb0EEELb0ELb0ES4_mS4_E5visitINS0_6class_IS6_NS7_13not_specifiedESD_SD_EEEEvRT_
   fun:_ZN5boost6python18def_visitor_access5visitINS0_11def_visitorINS0_14indexing_suiteISt6vectorIN4dust8documentESaIS7_EENS0_6detail29final_vector_derived_policiesIS9_Lb0EEELb0ELb0ES7_mS7_EEEENS0_6class_IS9_NSA_13not_specifiedESG_SG_EEEEvRKT_RT0_
   fun:_ZNK5boost6python11def_visitorINS0_14indexing_suiteISt6vectorIN4dust8documentESaIS5_EENS0_6detail29final_vector_derived_policiesIS7_Lb0EEELb0ELb0ES5_mS5_EEE5visitINS0_6class_IS7_NS8_13not_specifiedESF_SF_EEEEvRT_
   fun:_ZN5boost6python6class_ISt6vectorIN4dust8documentESaIS4_EENS0_6detail13not_specifiedES8_S8_E3defINS0_14indexing_suiteIS6_NS7_29final_vector_derived_policiesIS6_Lb0EEELb0ELb0ES4_mS4_EEEERS9_RKNS0_11def_visitorIT_EE
   fun:_ZN11dust_server16init_module_DustEv
}
{
   <insert_a_suppression_name_here>
   Memcheck:Leak
   fun:malloc
   fun:PyObject_Malloc
   fun:PyString_FromString
   fun:_ZN5boost6python6detail8str_baseC1EPKc
   fun:_ZN5boost6python7objects8function16add_to_namespaceERKNS0_3api6objectEPKcS6_S8_
   fun:_ZN5boost6python6class_ISt6vectorIN4dust8documentESaIS4_EENS0_6detail13not_specifiedES8_S8_E8def_implIS6_PFvRS6_P7_objectENS7_10def_helperIPKcS8_S8_S8_EEEEvPT_SI_T0_RKT1_z
   fun:_ZN5boost6python6class_ISt6vectorIN4dust8documentESaIS4_EENS0_6detail13not_specifiedES8_S8_E3defIPFvRS6_P7_objectEEERS9_PKcT_
   fun:_ZNK5boost6python14indexing_suiteISt6vectorIN4dust8documentESaIS4_EENS0_6detail29final_vector_derived_policiesIS6_Lb0EEELb0ELb0ES4_mS4_E5visitINS0_6class_IS6_NS7_13not_specifiedESD_SD_EEEEvRT_
   fun:_ZN5boost6python18def_visitor_access5visitINS0_11def_visitorINS0_14indexing_suiteISt6vectorIN4dust8documentESaIS7_EENS0_6detail29final_vector_derived_policiesIS9_Lb0EEELb0ELb0ES7_mS7_EEEENS0_6class_IS9_NSA_13not_specifiedESG_SG_EEEEvRKT_RT0_
   fun:_ZNK5boost6python11def_visitorINS0_14indexing_suiteISt6vectorIN4dust8documentESaIS5_EENS0_6detail29final_vector_derived_policiesIS7_Lb0EEELb0ELb0ES5_mS5_EEE5visitINS0_6class_IS7_NS8_13not_specifiedESF_SF_EEEEvRT_
   fun:_ZN5boost6python6class_ISt6vectorIN4dust8documentESaIS4_EENS0_6detail13not_specifiedES8_S8_E3defINS0_14indexing_suiteIS6_NS7_29final_vector_derived_policiesIS6_Lb0EEELb0ELb0ES4_mS4_EEEERS9_RKNS0_11def_visitorIT_EE
   fun:_ZN11dust_server16init_module_DustEv
}
{
   <insert_a_suppression_name_here>
   Memcheck:Leak
   fun:malloc
   fun:PyObject_Malloc
   fun:PyString_FromString
   fun:_ZN5boost6python6detail8str_baseC1EPKc
   fun:_ZN5boost6python7objects8function16add_to_namespaceERKNS0_3api6objectEPKcS6_S8_
   fun:_ZN5boost6python6class_ISt6vectorIN4dust8documentESaIS4_EENS0_6detail13not_specifiedES8_S8_E8def_implIS6_PFNS0_3api6objectENS0_14back_referenceIRS6_EEP7_objectENS7_10def_helperIPKcS8_S8_S8_EEEEvPT_SM_T0_RKT1_z
   fun:_ZN5boost6python6class_ISt6vectorIN4dust8documentESaIS4_EENS0_6detail13not_specifiedES8_S8_E3defIPFNS0_3api6objectENS0_14back_referenceIRS6_EEP7_objectEEERS9_PKcT_
   fun:_ZNK5boost6python14indexing_suiteISt6vectorIN4dust8documentESaIS4_EENS0_6detail29final_vector_derived_policiesIS6_Lb0EEELb0ELb0ES4_mS4_E5visitINS0_6class_IS6_NS7_13not_specifiedESD_SD_EEEEvRT_
   fun:_ZN5boost6python18def_visitor_access5visitINS0_11def_visitorINS0_14indexing_suiteISt6vectorIN4dust8documentESaIS7_EENS0_6detail29final_vector_derived_policiesIS9_Lb0EEELb0ELb0ES7_mS7_EEEENS0_6class_IS9_NSA_13not_specifiedESG_SG_EEEEvRKT_RT0_
   fun:_ZNK5boost6python11def_visitorINS0_14indexing_suiteISt6vectorIN4dust8documentESaIS5_EENS0_6detail29final_vector_derived_policiesIS7_Lb0EEELb0ELb0ES5_mS5_EEE5visitINS0_6class_IS7_NS8_13not_specifiedESF_SF_EEEEvRT_
   fun:_ZN5boost6python6class_ISt6vectorIN4dust8documentESaIS4_EENS0_6detail13not_specifiedES8_S8_E3defINS0_14indexing_suiteIS6_NS7_29final_vector_derived_policiesIS6_Lb0EEELb0ELb0ES4_mS4_EEEERS9_RKNS0_11def_visitorIT_EE
   fun:_ZN11dust_server16init_module_DustEv
}
{
   <insert_a_suppression_name_here>
   Memcheck:Leak
   fun:malloc
   fun:PyObject_Malloc
   fun:PyString_FromString
   fun:_ZN5boost6python6detail8str_baseC1EPKc
   fun:_ZN5boost6python7objects8function16add_to_namespaceERKNS0_3api6objectEPKcS6_S8_
   fun:_ZN5boost6python6class_ISt6vectorIN4dust8documentESaIS4_EENS0_6detail13not_specifiedES8_S8_E8def_implIS6_PFbRS6_P7_objectENS7_10def_helperIPKcS8_S8_S8_EEEEvPT_SI_T0_RKT1_z
   fun:_ZN5boost6python6class_ISt6vectorIN4dust8documentESaIS4_EENS0_6detail13not_specifiedES8_S8_E3defIPFbRS6_P7_objectEEERS9_PKcT_
   fun:_ZNK5boost6python14indexing_suiteISt6vectorIN4dust8documentESaIS4_EENS0_6detail29final_vector_derived_policiesIS6_Lb0EEELb0ELb0ES4_mS4_E5visitINS0_6class_IS6_NS7_13not_specifiedESD_SD_EEEEvRT_
   fun:_ZN5boost6python18def_visitor_access5visitINS0_11def_visitorINS0_14indexing_suiteISt6vectorIN4dust8documentESaIS7_EENS0_6detail29final_vector_derived_policiesIS9_Lb0EEELb0ELb0ES7_mS7_EEEENS0_6class_IS9_NSA_13not_specifiedESG_SG_EEEEvRKT_RT0_
   fun:_ZNK5boost6python11def_visitorINS0_14indexing_suiteISt6vectorIN4dust8documentESaIS5_EENS0_6detail29final_vector_derived_policiesIS7_Lb0EEELb0ELb0ES5_mS5_EEE5visitINS0_6class_IS7_NS8_13not_specifiedESF_SF_EEEEvRT_
   fun:_ZN5boost6python6class_ISt6vectorIN4dust8documentESaIS4_EENS0_6detail13not_specifiedES8_S8_E3defINS0_14indexing_suiteIS6_NS7_29final_vector_derived_policiesIS6_Lb0EEELb0ELb0ES4_mS4_EEEERS9_RKNS0_11def_visitorIT_EE
   fun:_ZN11dust_server16init_module_DustEv
}
{
   <insert_a_suppression_name_here>
   Memcheck:Leak
   fun:malloc
   fun:PyObject_Malloc
   fun:PyString_FromString
   fun:PyString_InternFromString
   fun:PyObject_SetAttrString
   fun:_ZN5boost6python3api7setattrERKNS1_6objectEPKcS4_
   fun:_ZN5boost6python7objects10class_base17set_instance_sizeEm
   fun:_ZN5boost6python6class_IN4dust8documentENS0_6detail13not_specifiedES5_S5_E10initializeINS0_9init_baseINS0_4initISt8weak_ptrINS2_15key_value_storeEESsN4mpl_5void_ESE_SE_SE_SE_SE_SE_SE_SE_SE_SE_SE_SE_EEEEEEvRKT_
   fun:_ZN5boost6python6class_IN4dust8documentENS0_6detail13not_specifiedES5_S5_EC2INS0_4initISt8weak_ptrINS2_15key_value_storeEESsN4mpl_5void_ESD_SD_SD_SD_SD_SD_SD_SD_SD_SD_SD_SD_EEEEPKcRKNS0_9init_baseIT_EE
   fun:_ZN5boost6python6class_IN4dust8documentENS0_6detail13not_specifiedES5_S5_EC1INS0_4initISt8weak_ptrINS2_15key_value_storeEESsN4mpl_5void_ESD_SD_SD_SD_SD_SD_SD_SD_SD_SD_SD_SD_EEEEPKcRKNS0_9init_baseIT_EE
   fun:_ZN11dust_server16init_module_DustEv
   fun:_ZN5boost6python21handle_exception_implENS_9function0IvEE
}
{
   <insert_a_suppression_name_here>
   Memcheck:Leak
   fun:malloc
   fun:PyObject_Malloc
   fun:_PyObject_GC_Malloc
   fun:_PyObject_GC_NewVar
   fun:PyTuple_New
   fun:PyType_Ready
   fun:PyType_Ready
   fun:_Py_ReadyTypes
   fun:Py_InitializeEx
   fun:_ZN11dust_server17PythonInitializerC2Ev
   fun:_ZN11dust_server17PythonInitializerC1Ev
   fun:__cxx_global_var_init25
}
{
   <insert_a_suppression_name_here>
   Memcheck:Leak
   fun:malloc
   fun:PyObject_Malloc
   fun:PyString_FromStringAndSize
   obj:/usr/lib64/libpython2.7.so.1.0
   obj:/usr/lib64/libpython2.7.so.1.0
   obj:/usr/lib64/libpython2.7.so.1.0
   obj:/usr/lib64/libpython2.7.so.1.0
   obj:/usr/lib64/libpython2.7.so.1.0
   obj:/usr/lib64/libpython2.7.so.1.0
   obj:/usr/lib64/libpython2.7.so.1.0
   obj:/usr/lib64/libpython2.7.so.1.0
   obj:/usr/lib64/libpython2.7.so.1.0
}
{
   <insert_a_suppression_name_here>
   Memcheck:Leak
   fun:malloc
   fun:PyObject_Malloc
   fun:_PyObject_GC_Malloc
   fun:_PyObject_GC_NewVar
   fun:PyTuple_New
   fun:PyTuple_Pack
   fun:PyType_Ready
   fun:_Py_ReadyTypes
   fun:Py_InitializeEx
   fun:_ZN11dust_server17PythonInitializerC2Ev
   fun:_ZN11dust_server17PythonInitializerC1Ev
   fun:__cxx_global_var_init25
}
{
   <insert_a_suppression_name_here>
   Memcheck:Leak
   fun:malloc
   fun:PyObject_Malloc
   fun:_PyObject_GC_Malloc
   fun:_PyObject_GC_NewVar
   fun:PyTuple_New
   fun:PyList_AsTuple
   fun:PySequence_Tuple
   obj:/usr/lib64/libpython2.7.so.1.0
   fun:PyType_Ready
   fun:PyType_Ready
   fun:_Py_ReadyTypes
   fun:Py_InitializeEx
}
{
   <insert_a_suppression_name_here>
   Memcheck:Leak
   fun:malloc
   fun:PyObject_Malloc
   fun:_PyObject_GC_Malloc
   fun:_PyObject_GC_NewVar
   fun:PyTuple_New
   fun:PyTuple_Pack
   fun:PyType_Ready
   fun:PyType_Ready
   fun:_Py_ReadyTypes
   fun:Py_InitializeEx
   fun:_ZN11dust_server17PythonInitializerC2Ev
   fun:_ZN11dust_server17PythonInitializerC1Ev
}
{
   <insert_a_suppression_name_here>
   Memcheck:Leak
   fun:malloc
   fun:PyObject_Malloc
   fun:_PyObject_GC_Malloc
   fun:_PyObject_GC_NewVar
   fun:PyTuple_New
   fun:PyTuple_Pack
   fun:PyType_Ready
   fun:PyStructSequence_InitType
   fun:_PyLong_Init
   fun:Py_InitializeEx
   fun:_ZN11dust_server17PythonInitializerC2Ev
   fun:_ZN11dust_server17PythonInitializerC1Ev
}
{
   <insert_a_suppression_name_here>
   Memcheck:Leak
   fun:malloc
   fun:PyObject_Malloc
   fun:_PyObject_GC_Malloc
   fun:_PyObject_GC_NewVar
   fun:PyTuple_New
   fun:PyTuple_Pack
   fun:PyType_Ready
   fun:PyStructSequence_InitType
   fun:Py_InitializeEx
   fun:_ZN11dust_server17PythonInitializerC2Ev
   fun:_ZN11dust_server17PythonInitializerC1Ev
   fun:__cxx_global_var_init25
}
{
   <insert_a_suppression_name_here>
   Memcheck:Leak
   fun:malloc
   fun:PyObject_Malloc
   fun:_PyObject_GC_Malloc
   fun:_PyObject_GC_NewVar
   fun:PyTuple_New
   fun:PyTuple_Pack
   fun:PyType_Ready
   fun:_PyUnicodeUCS4_Init
   fun:Py_InitializeEx
   fun:_ZN11dust_server17PythonInitializerC2Ev
   fun:_ZN11dust_server17PythonInitializerC1Ev
   fun:__cxx_global_var_init25
}
{
   <insert_a_suppression_name_here>
   Memcheck:Leak
   fun:malloc
   fun:PyObject_Malloc
   fun:_PyObject_GC_Malloc
   fun:_PyObject_GC_NewVar
   fun:PyTuple_New
   fun:PyTuple_Pack
   fun:PyType_Ready
   fun:PyStructSequence_InitType
   fun:_PySys_Init
   fun:Py_InitializeEx
   fun:_ZN11dust_server17PythonInitializerC2Ev
   fun:_ZN11dust_server17PythonInitializerC1Ev
}
{
   <insert_a_suppression_name_here>
   Memcheck:Leak
   fun:malloc
   fun:PyObject_Malloc
   fun:_PyObject_GC_Malloc
   fun:_PyObject_GC_NewVar
   fun:PyTuple_New
   fun:PyTuple_Pack
   fun:PyType_Ready
   fun:_PyExc_Init
   fun:Py_InitializeEx
   fun:_ZN11dust_server17PythonInitializerC2Ev
   fun:_ZN11dust_server17PythonInitializerC1Ev
   fun:__cxx_global_var_init25
}
{
   <insert_a_suppression_name_here>
   Memcheck:Leak
   fun:malloc
   fun:PyObject_Malloc
   fun:_PyObject_GC_Malloc
   fun:_PyObject_GC_NewVar
   fun:PyTuple_New
   fun:PyTuple_Pack
   fun:PyType_Ready
   fun:_PyObject_GenericGetAttrWithDict
   fun:PyImport_Import
   fun:PyImport_ImportModule
   fun:_PyExc_Init
   fun:Py_InitializeEx
}
{
   <insert_a_suppression_name_here>
   Memcheck:Leak
   fun:malloc
   fun:PyObject_Malloc
   fun:_PyObject_GC_Malloc
   fun:_PyObject_GC_NewVar
   fun:PyTuple_New
   fun:PyTuple_Pack
   fun:PyType_Ready
   fun:_PyImportHooks_Init
   fun:Py_InitializeEx
   fun:_ZN11dust_server17PythonInitializerC2Ev
   fun:_ZN11dust_server17PythonInitializerC1Ev
   fun:__cxx_global_var_init25
}
{
   <insert_a_suppression_name_here>
   Memcheck:Leak
   fun:malloc
   fun:PyObject_Malloc
   fun:_PyObject_GC_Malloc
   fun:_PyObject_GC_NewVar
   fun:PyTuple_New
   fun:PyTuple_Pack
   fun:PyType_Ready
   fun:initzipimport
   obj:/usr/lib64/libpython2.7.so.1.0
   obj:/usr/lib64/libpython2.7.so.1.0
   obj:/usr/lib64/libpython2.7.so.1.0
   obj:/usr/lib64/libpython2.7.so.1.0
}
{
   <insert_a_suppression_name_here>
   Memcheck:Leak
   fun:malloc
   fun:PyObject_Malloc
   fun:_PyObject_GC_Malloc
   fun:_PyObject_GC_NewVar
   fun:PyTuple_New
   fun:PyTuple_Pack
   fun:PyErr_NewException
   fun:initzipimport
   obj:/usr/lib64/libpython2.7.so.1.0
   obj:/usr/lib64/libpython2.7.so.1.0
   obj:/usr/lib64/libpython2.7.so.1.0
   obj:/usr/lib64/libpython2.7.so.1.0
}
{
   <insert_a_suppression_name_here>
   Memcheck:Leak
   fun:malloc
   fun:PyObject_Malloc
   fun:_PyObject_GC_Malloc
   fun:_PyObject_GC_NewVar
   fun:PyTuple_New
   fun:PyTuple_Pack
   fun:PyErr_NewException
   fun:initsignal
   fun:PyOS_InitInterrupts
   fun:Py_InitializeEx
   fun:_ZN11dust_server17PythonInitializerC2Ev
   fun:_ZN11dust_server17PythonInitializerC1Ev
}
{
   <insert_a_suppression_name_here>
   Memcheck:Leak
   fun:malloc
   fun:PyObject_Malloc
   fun:_PyObject_GC_Malloc
   fun:_PyObject_GC_NewVar
   fun:PyTuple_New
   obj:/usr/lib64/libpython2.7.so.1.0
   fun:PyObject_CallFunctionObjArgs
   obj:/usr/lib64/libpython2.7.so.1.0
   obj:/usr/lib64/libpython2.7.so.1.0
   obj:/usr/lib64/libpython2.7.so.1.0
   obj:/usr/lib64/libpython2.7.so.1.0
   fun:PyImport_ImportModuleLevel
}
{
   <insert_a_suppression_name_here>
   Memcheck:Leak
   fun:malloc
   fun:PyObject_Malloc
   fun:_PyObject_GC_Malloc
   fun:_PyObject_GC_NewVar
   fun:PyTuple_New
   fun:PyTuple_Pack
   fun:PyType_Ready
   fun:PyStructSequence_InitType
   fun:initposix
   obj:/usr/lib64/libpython2.7.so.1.0
   obj:/usr/lib64/libpython2.7.so.1.0
   obj:/usr/lib64/libpython2.7.so.1.0
}
{
   <insert_a_suppression_name_here>
   Memcheck:Leak
   fun:malloc
   fun:PyObject_Malloc
   fun:_PyObject_GC_Malloc
   fun:_PyObject_GC_NewVar
   fun:PyTuple_New
   obj:/usr/lib64/libpython2.7.so.1.0
   fun:PyObject_CallFunctionObjArgs
   fun:PyObject_IsSubclass
   fun:PyErr_GivenExceptionMatches
   fun:PyEval_EvalFrameEx
   fun:PyEval_EvalCodeEx
   fun:PyEval_EvalCode
}
{
   <insert_a_suppression_name_here>
   Memcheck:Leak
   fun:malloc
   fun:PyObject_Malloc
   fun:_PyObject_GC_Malloc
   fun:_PyObject_GC_NewVar
   fun:PyTuple_New
   obj:/usr/lib64/libpython2.7.so.1.0
   fun:PyObject_CallFunctionObjArgs
   fun:PyObject_IsSubclass
   fun:PyErr_GivenExceptionMatches
   obj:/usr/lib64/libpython2.7.so.1.0
   fun:PyEval_EvalFrameEx
   obj:/usr/lib64/libpython2.7.so.1.0
}
{
   <insert_a_suppression_name_here>
   Memcheck:Leak
   fun:malloc
   fun:PyObject_Malloc
   fun:_PyObject_GC_Malloc
   fun:_PyObject_GC_NewVar
   fun:PyTuple_New
   fun:PyTuple_Pack
   fun:PyType_Ready
   fun:init_sre
   obj:/usr/lib64/libpython2.7.so.1.0
   obj:/usr/lib64/libpython2.7.so.1.0
   obj:/usr/lib64/libpython2.7.so.1.0
   obj:/usr/lib64/libpython2.7.so.1.0
}
{
   <insert_a_suppression_name_here>
   Memcheck:Leak
   fun:malloc
   fun:PyObject_Malloc
   fun:_PyObject_GC_Malloc
   fun:_PyObject_GC_NewVar
   fun:PyTuple_New
   obj:/usr/lib64/libpython2.7.so.1.0
   fun:PyObject_CallFunctionObjArgs
   fun:PyObject_IsSubclass
   fun:PyErr_GivenExceptionMatches
   obj:/usr/lib64/libpython2.7.so.1.0
   fun:PyIter_Next
   obj:/usr/lib64/libpython2.7.so.1.0
}
{
   <insert_a_suppression_name_here>
   Memcheck:Leak
   fun:malloc
   fun:PyObject_Malloc
   fun:_PyObject_GC_Malloc
   fun:_PyObject_GC_NewVar
   fun:PyTuple_New
   fun:PyEval_EvalFrameEx
   fun:PyEval_EvalCodeEx
   obj:/usr/lib64/libpython2.7.so.1.0
   fun:PyObject_Call
   fun:PyEval_EvalFrameEx
   fun:PyEval_EvalCodeEx
   fun:PyEval_EvalFrameEx
}
{
   <insert_a_suppression_name_here>
   Memcheck:Leak
   fun:malloc
   fun:PyObject_Malloc
   fun:_PyObject_GC_Malloc
   fun:_PyObject_GC_NewVar
   fun:PyTuple_New
   fun:PyEval_EvalFrameEx
   fun:PyEval_EvalCodeEx
   fun:PyEval_EvalFrameEx
   fun:PyEval_EvalCodeEx
   fun:PyEval_EvalFrameEx
   fun:PyEval_EvalFrameEx
   fun:PyEval_EvalCodeEx
}
{
   <insert_a_suppression_name_here>
   Memcheck:Leak
   fun:malloc
   fun:PyObject_Malloc
   fun:_PyObject_GC_Malloc
   fun:_PyObject_GC_NewVar
   fun:PyTuple_New
   fun:PyTuple_Pack
   fun:PyType_Ready
   fun:_ZN5boost6python7objects20function_handle_implERKNS1_11py_functionE
   fun:_ZN5boost6python29make_instance_reduce_functionEv
   fun:_ZN5boost6python7objects10class_baseC1EPKcmPKNS0_9type_infoES4_
   fun:_ZN5boost6python6class_IN4dust8documentENS0_6detail13not_specifiedES5_S5_EC2INS0_4initISt8weak_ptrINS2_15key_value_storeEESsN4mpl_5void_ESD_SD_SD_SD_SD_SD_SD_SD_SD_SD_SD_SD_EEEEPKcRKNS0_9init_baseIT_EE
   fun:_ZN5boost6python6class_IN4dust8documentENS0_6detail13not_specifiedES5_S5_EC1INS0_4initISt8weak_ptrINS2_15key_value_storeEESsN4mpl_5void_ESD_SD_SD_SD_SD_SD_SD_SD_SD_SD_SD_SD_EEEEPKcRKNS0_9init_baseIT_EE
}
{
   <insert_a_suppression_name_here>
   Memcheck:Leak
   fun:malloc
   fun:PyObject_Malloc
   fun:_PyObject_GC_Malloc
   fun:_PyObject_GC_NewVar
   fun:PyTuple_New
   fun:PyTuple_Pack
   fun:PyType_Ready
   fun:class_setattro
   fun:PyObject_SetAttr
   fun:PyObject_SetAttrString
   fun:_ZN5boost6python3api7setattrERKNS1_6objectEPKcS4_
   fun:_ZN5boost6python7objects10class_baseC1EPKcmPKNS0_9type_infoES4_
}
{
   <insert_a_suppression_name_here>
   Memcheck:Leak
   fun:malloc
   fun:PyObject_Malloc
   fun:_PyObject_GC_Malloc
   fun:_PyObject_GC_NewVar
   fun:PyTuple_New
   obj:/usr/lib64/libpython2.7.so.1.0
   fun:PyObject_CallFunctionObjArgs
   fun:PyObject_IsInstance
   fun:class_setattro
   fun:PyObject_SetAttr
   fun:PyObject_SetAttrString
   fun:_ZN5boost6python3api7setattrERKNS1_6objectEPKcS4_
}
{
   <insert_a_suppression_name_here>
   Memcheck:Leak
   fun:malloc
   fun:PyObject_Malloc
   fun:_PyObject_GC_Malloc
   fun:_PyObject_GC_NewVar
   fun:PyTuple_New
   fun:PyTuple_Pack
   fun:PyType_Ready
   fun:_PyObject_GenericGetAttrWithDict
   obj:/usr/lib64/libpython2.7.so.1.0
   obj:/usr/lib64/libpython2.7.so.1.0
   fun:PyObject_Call
   fun:PyObject_CallFunctionObjArgs
}
{
   <insert_a_suppression_name_here>
   Memcheck:Leak
   fun:malloc
   fun:PyObject_Malloc
   obj:/usr/lib64/libpython2.7.so.1.0
   fun:_ZN5boost6python3apipLERNS1_6objectERKS2_
   fun:_ZN5boost6python7objects8function16add_to_namespaceERKNS0_3api6objectEPKcS6_S8_
   fun:_ZNK5boost6python3api16object_operatorsINS1_6objectEE5visitINS0_6class_IN4dust8documentENS0_6detail13not_specifiedESA_SA_EEPKcEEvRT_SD_RKNS9_10def_helperIT0_SA_SA_SA_EE
   fun:_ZN5boost6python18def_visitor_access5visitINS0_11def_visitorINS0_3api6objectEEENS0_6class_IN4dust8documentENS0_6detail13not_specifiedESB_SB_EENSA_10def_helperIPKcSB_SB_SB_EEEEvRKT_RT0_SF_RKT1_
   fun:_ZNK5boost6python11def_visitorINS0_3api6objectEE5visitINS0_6class_IN4dust8documentENS0_6detail13not_specifiedESA_SA_EENS9_10def_helperIPKcSA_SA_SA_EEEEvRT_SE_RKT0_
   fun:_ZN5boost6python6class_IN4dust8documentENS0_6detail13not_specifiedES5_S5_E8def_implIS3_NS4_10def_helperIPKcS5_S5_S5_EENS0_3api6objectESD_EEvPT_SA_T1_RKT0_PKNS0_11def_visitorIT2_EE
   fun:_ZN5boost6python6class_IN4dust8documentENS0_6detail13not_specifiedES5_S5_E19def_maybe_overloadsINS0_3api6objectEPKcEEvSB_T_RKT0_z
   fun:_ZN5boost6python6class_IN4dust8documentENS0_6detail13not_specifiedES5_S5_E3defINS0_3api6objectEPKcEERS6_SB_T_RKT0_
   fun:_ZN5boost6python6detail12def_init_auxINS0_6class_IN4dust8documentENS1_13not_specifiedES6_S6_EENS0_21default_call_policiesENS_3mpl7vector2ISt8weak_ptrINS4_15key_value_storeEESsEENS9_4sizeISE_EEEEvRT_RKT1_T2_RKT0_PKcRKSt4pairIPKNS1_7keywordESV_E
}
{
   <insert_a_suppression_name_here>
   Memcheck:Leak
   fun:malloc
   fun:PyObject_Malloc
   obj:/usr/lib64/libpython2.7.so.1.0
   fun:_ZN5boost6python3apipLERNS1_6objectERKS2_
   fun:_ZN5boost6python7objects8function16add_to_namespaceERKNS0_3api6objectEPKcS6_S8_
   fun:_ZN5boost6python6class_IN4dust8documentENS0_6detail13not_specifiedES5_S5_E8def_implIS3_MS3_KFS3_RKSsENS4_10def_helperIPKcS5_S5_S5_EEEEvPT_SE_T0_RKT1_z
   fun:_ZN5boost6python6class_IN4dust8documentENS0_6detail13not_specifiedES5_S5_E3defIMS3_KFS3_RKSsEEERS6_PKcT_
   fun:_ZN11dust_server16init_module_DustEv
   fun:_ZN5boost6python21handle_exception_implENS_9function0IvEE
   fun:_ZN5boost6python6detail11init_moduleEPKcPFvvE
   fun:initDust
   fun:_ZN11dust_server17PythonInitializerC2Ev
}
{
   <insert_a_suppression_name_here>
   Memcheck:Leak
   fun:malloc
   fun:PyObject_Malloc
   obj:/usr/lib64/libpython2.7.so.1.0
   fun:_ZN5boost6python3apipLERNS1_6objectERKS2_
   fun:_ZN5boost6python7objects8function16add_to_namespaceERKNS0_3api6objectEPKcS6_S8_
   fun:_ZN5boost6python6class_IN4dust8documentENS0_6detail13not_specifiedES5_S5_E8def_implIS3_MS3_FvRKSsENS4_10def_helperIPKcS5_S5_S5_EEEEvPT_SE_T0_RKT1_z
   fun:_ZN5boost6python6class_IN4dust8documentENS0_6detail13not_specifiedES5_S5_E3defIMS3_FvRKSsEEERS6_PKcT_
   fun:_ZN11dust_server16init_module_DustEv
   fun:_ZN5boost6python21handle_exception_implENS_9function0IvEE
   fun:_ZN5boost6python6detail11init_moduleEPKcPFvvE
   fun:initDust
   fun:_ZN11dust_server17PythonInitializerC2Ev
}
{
   <insert_a_suppression_name_here>
   Memcheck:Leak
   fun:malloc
   fun:PyObject_Malloc
   obj:/usr/lib64/libpython2.7.so.1.0
   fun:_ZN5boost6python3apipLERNS1_6objectERKS2_
   fun:_ZN5boost6python7objects8function16add_to_namespaceERKNS0_3api6objectEPKcS6_S8_
   fun:_ZN5boost6python6class_IN4dust8documentENS0_6detail13not_specifiedES5_S5_E8def_implIS3_MS3_KFSsvENS4_10def_helperIPKcS5_S5_S5_EEEEvPT_SC_T0_RKT1_z
   fun:_ZN5boost6python6class_IN4dust8documentENS0_6detail13not_specifiedES5_S5_E3defIMS3_KFSsvEEERS6_PKcT_
   fun:_ZN11dust_server16init_module_DustEv
   fun:_ZN5boost6python21handle_exception_implENS_9function0IvEE
   fun:_ZN5boost6python6detail11init_moduleEPKcPFvvE
   fun:initDust
   fun:_ZN11dust_server17PythonInitializerC2Ev
}
{
   <insert_a_suppression_name_here>
   Memcheck:Leak
   fun:malloc
   fun:PyObject_Malloc
   obj:/usr/lib64/libpython2.7.so.1.0
   fun:_ZN5boost6python3apipLERNS1_6objectERKS2_
   fun:_ZN5boost6python7objects8function16add_to_namespaceERKNS0_3api6objectEPKcS6_S8_
   fun:_ZN5boost6python6class_IN4dust8documentENS0_6detail13not_specifiedES5_S5_E8def_implIS3_MS3_KFbvENS4_10def_helperIPKcS5_S5_S5_EEEEvPT_SC_T0_RKT1_z
   fun:_ZN5boost6python6class_IN4dust8documentENS0_6detail13not_specifiedES5_S5_E3defIMS3_KFbvEEERS6_PKcT_
   fun:_ZN11dust_server16init_module_DustEv
   fun:_ZN5boost6python21handle_exception_implENS_9function0IvEE
   fun:_ZN5boost6python6detail11init_moduleEPKcPFvvE
   fun:initDust
   fun:_ZN11dust_server17PythonInitializerC2Ev
}
{
   <insert_a_suppression_name_here>
   Memcheck:Leak
   fun:malloc
   fun:PyObject_Malloc
   obj:/usr/lib64/libpython2.7.so.1.0
   fun:_ZN5boost6python3apipLERNS1_6objectERKS2_
   fun:_ZN5boost6python7objects8function16add_to_namespaceERKNS0_3api6objectEPKcS6_S8_
   fun:_ZN5boost6python6class_IN4dust8documentENS0_6detail13not_specifiedES5_S5_E8def_implIS3_MS3_FvvENS4_10def_helperIPKcS5_S5_S5_EEEEvPT_SC_T0_RKT1_z
   fun:_ZN5boost6python6class_IN4dust8documentENS0_6detail13not_specifiedES5_S5_E3defIMS3_FvvEEERS6_PKcT_
   fun:_ZN11dust_server16init_module_DustEv
   fun:_ZN5boost6python21handle_exception_implENS_9function0IvEE
   fun:_ZN5boost6python6detail11init_moduleEPKcPFvvE
   fun:initDust
   fun:_ZN11dust_server17PythonInitializerC2Ev
}
{
   <insert_a_suppression_name_here>
   Memcheck:Leak
   fun:malloc
   fun:PyObject_Malloc
   obj:/usr/lib64/libpython2.7.so.1.0
   fun:_ZN5boost6python3apipLERNS1_6objectERKS2_
   fun:_ZN5boost6python7objects8function16add_to_namespaceERKNS0_3api6objectEPKcS6_S8_
   fun:_ZN5boost6python6class_IN4dust8documentENS0_6detail13not_specifiedES5_S5_E8def_implIS3_MS3_KFSt6vectorIS3_SaIS3_EEvENS4_10def_helperIPKcS5_S5_S5_EEEEvPT_SF_T0_RKT1_z
   fun:_ZN5boost6python6class_IN4dust8documentENS0_6detail13not_specifiedES5_S5_E3defIMS3_KFSt6vectorIS3_SaIS3_EEvEEERS6_PKcT_
   fun:_ZN11dust_server16init_module_DustEv
   fun:_ZN5boost6python21handle_exception_implENS_9function0IvEE
   fun:_ZN5boost6python6detail11init_moduleEPKcPFvvE
   fun:initDust
   fun:_ZN11dust_server17PythonInitializerC2Ev
}
{
   <insert_a_suppression_name_here>
   Memcheck:Leak
   fun:malloc
   fun:PyObject_Malloc
   obj:/usr/lib64/libpython2.7.so.1.0
   fun:_ZN5boost6python3apipLERNS1_6objectERKS2_
   fun:_ZN5boost6python7objects8function16add_to_namespaceERKNS0_3api6objectEPKcS6_S8_
   fun:_ZNK5boost6python3api16object_operatorsINS1_6objectEE5visitINS0_6class_ISt6vectorIN4dust8documentESaIS9_EENS0_6detail13not_specifiedESD_SD_EEPKcEEvRT_SG_RKNSC_10def_helperIT0_SD_SD_SD_EE
   fun:_ZN5boost6python18def_visitor_access5visitINS0_11def_visitorINS0_3api6objectEEENS0_6class_ISt6vectorIN4dust8documentESaISA_EENS0_6detail13not_specifiedESE_SE_EENSD_10def_helperIPKcSE_SE_SE_EEEEvRKT_RT0_SI_RKT1_
   fun:_ZNK5boost6python11def_visitorINS0_3api6objectEE5visitINS0_6class_ISt6vectorIN4dust8documentESaIS9_EENS0_6detail13not_specifiedESD_SD_EENSC_10def_helperIPKcSD_SD_SD_EEEEvRT_SH_RKT0_
   fun:_ZN5boost6python6class_ISt6vectorIN4dust8documentESaIS4_EENS0_6detail13not_specifiedES8_S8_E8def_implIS6_NS7_10def_helperIPKcS8_S8_S8_EENS0_3api6objectESG_EEvPT_SD_T1_RKT0_PKNS0_11def_visitorIT2_EE
   fun:_ZN5boost6python6class_ISt6vectorIN4dust8documentESaIS4_EENS0_6detail13not_specifiedES8_S8_E19def_maybe_overloadsINS0_3api6objectEPKcEEvSE_T_RKT0_z
   fun:_ZN5boost6python6class_ISt6vectorIN4dust8documentESaIS4_EENS0_6detail13not_specifiedES8_S8_E3defINS0_3api6objectEPKcEERS9_SE_T_RKT0_
   fun:_ZN5boost6python6detail12def_init_auxINS0_6class_ISt6vectorIN4dust8documentESaIS6_EENS1_13not_specifiedES9_S9_EENS0_21default_call_policiesENS_3mpl7vector0IN4mpl_2naEEENSC_4sizeISG_EEEEvRT_RKT1_T2_RKT0_PKcRKSt4pairIPKNS1_7keywordESX_E
}
{
   <insert_a_suppression_name_here>
   Memcheck:Leak
   fun:malloc
   fun:PyObject_Malloc
   obj:/usr/lib64/libpython2.7.so.1.0
   fun:_ZN5boost6python3apipLERNS1_6objectERKS2_
   fun:_ZN5boost6python7objects8function16add_to_namespaceERKNS0_3api6objectEPKcS6_S8_
   fun:_ZN5boost6python6class_ISt6vectorIN4dust8documentESaIS4_EENS0_6detail13not_specifiedES8_S8_E8def_implIS6_PFmRS6_ENS7_10def_helperIPKcS8_S8_S8_EEEEvPT_SG_T0_RKT1_z
   fun:_ZN5boost6python6class_ISt6vectorIN4dust8documentESaIS4_EENS0_6detail13not_specifiedES8_S8_E3defIPFmRS6_EEERS9_PKcT_
   fun:_ZNK5boost6python14indexing_suiteISt6vectorIN4dust8documentESaIS4_EENS0_6detail29final_vector_derived_policiesIS6_Lb0EEELb0ELb0ES4_mS4_E5visitINS0_6class_IS6_NS7_13not_specifiedESD_SD_EEEEvRT_
   fun:_ZN5boost6python18def_visitor_access5visitINS0_11def_visitorINS0_14indexing_suiteISt6vectorIN4dust8documentESaIS7_EENS0_6detail29final_vector_derived_policiesIS9_Lb0EEELb0ELb0ES7_mS7_EEEENS0_6class_IS9_NSA_13not_specifiedESG_SG_EEEEvRKT_RT0_
   fun:_ZNK5boost6python11def_visitorINS0_14indexing_suiteISt6vectorIN4dust8documentESaIS5_EENS0_6detail29final_vector_derived_policiesIS7_Lb0EEELb0ELb0ES5_mS5_EEE5visitINS0_6class_IS7_NS8_13not_specifiedESF_SF_EEEEvRT_
   fun:_ZN5boost6python6class_ISt6vectorIN4dust8documentESaIS4_EENS0_6detail13not_specifiedES8_S8_E3defINS0_14indexing_suiteIS6_NS7_29final_vector_derived_policiesIS6_Lb0EEELb0ELb0ES4_mS4_EEEERS9_RKNS0_11def_visitorIT_EE
   fun:_ZN11dust_server16init_module_DustEv
}
{
   <insert_a_suppression_name_here>
   Memcheck:Leak
   fun:malloc
   fun:PyObject_Malloc
   obj:/usr/lib64/libpython2.7.so.1.0
   fun:_ZN5boost6python3apipLERNS1_6objectERKS2_
   fun:_ZN5boost6python7objects8function16add_to_namespaceERKNS0_3api6objectEPKcS6_S8_
   fun:_ZN5boost6python6class_ISt6vectorIN4dust8documentESaIS4_EENS0_6detail13not_specifiedES8_S8_E8def_implIS6_PFvRS6_P7_objectSD_ENS7_10def_helperIPKcS8_S8_S8_EEEEvPT_SI_T0_RKT1_z
   fun:_ZN5boost6python6class_ISt6vectorIN4dust8documentESaIS4_EENS0_6detail13not_specifiedES8_S8_E3defIPFvRS6_P7_objectSD_EEERS9_PKcT_
   fun:_ZNK5boost6python14indexing_suiteISt6vectorIN4dust8documentESaIS4_EENS0_6detail29final_vector_derived_policiesIS6_Lb0EEELb0ELb0ES4_mS4_E5visitINS0_6class_IS6_NS7_13not_specifiedESD_SD_EEEEvRT_
   fun:_ZN5boost6python18def_visitor_access5visitINS0_11def_visitorINS0_14indexing_suiteISt6vectorIN4dust8documentESaIS7_EENS0_6detail29final_vector_derived_policiesIS9_Lb0EEELb0ELb0ES7_mS7_EEEENS0_6class_IS9_NSA_13not_specifiedESG_SG_EEEEvRKT_RT0_
   fun:_ZNK5boost6python11def_visitorINS0_14indexing_suiteISt6vectorIN4dust8documentESaIS5_EENS0_6detail29final_vector_derived_policiesIS7_Lb0EEELb0ELb0ES5_mS5_EEE5visitINS0_6class_IS7_NS8_13not_specifiedESF_SF_EEEEvRT_
   fun:_ZN5boost6python6class_ISt6vectorIN4dust8documentESaIS4_EENS0_6detail13not_specifiedES8_S8_E3defINS0_14indexing_suiteIS6_NS7_29final_vector_derived_policiesIS6_Lb0EEELb0ELb0ES4_mS4_EEEERS9_RKNS0_11def_visitorIT_EE
   fun:_ZN11dust_server16init_module_DustEv
}
{
   <insert_a_suppression_name_here>
   Memcheck:Leak
   fun:malloc
   fun:PyObject_Malloc
   obj:/usr/lib64/libpython2.7.so.1.0
   fun:_ZN5boost6python3apipLERNS1_6objectERKS2_
   fun:_ZN5boost6python7objects8function16add_to_namespaceERKNS0_3api6objectEPKcS6_S8_
   fun:_ZN5boost6python6class_ISt6vectorIN4dust8documentESaIS4_EENS0_6detail13not_specifiedES8_S8_E8def_implIS6_PFvRS6_P7_objectENS7_10def_helperIPKcS8_S8_S8_EEEEvPT_SI_T0_RKT1_z
   fun:_ZN5boost6python6class_ISt6vectorIN4dust8documentESaIS4_EENS0_6detail13not_specifiedES8_S8_E3defIPFvRS6_P7_objectEEERS9_PKcT_
   fun:_ZNK5boost6python14indexing_suiteISt6vectorIN4dust8documentESaIS4_EENS0_6detail29final_vector_derived_policiesIS6_Lb0EEELb0ELb0ES4_mS4_E5visitINS0_6class_IS6_NS7_13not_specifiedESD_SD_EEEEvRT_
   fun:_ZN5boost6python18def_visitor_access5visitINS0_11def_visitorINS0_14indexing_suiteISt6vectorIN4dust8documentESaIS7_EENS0_6detail29final_vector_derived_policiesIS9_Lb0EEELb0ELb0ES7_mS7_EEEENS0_6class_IS9_NSA_13not_specifiedESG_SG_EEEEvRKT_RT0_
   fun:_ZNK5boost6python11def_visitorINS0_14indexing_suiteISt6vectorIN4dust8documentESaIS5_EENS0_6detail29final_vector_derived_policiesIS7_Lb0EEELb0ELb0ES5_mS5_EEE5visitINS0_6class_IS7_NS8_13not_specifiedESF_SF_EEEEvRT_
   fun:_ZN5boost6python6class_ISt6vectorIN4dust8documentESaIS4_EENS0_6detail13not_specifiedES8_S8_E3defINS0_14indexing_suiteIS6_NS7_29final_vector_derived_policiesIS6_Lb0EEELb0ELb0ES4_mS4_EEEERS9_RKNS0_11def_visitorIT_EE
   fun:_ZN11dust_server16init_module_DustEv
}
{
   <insert_a_suppression_name_here>
   Memcheck:Leak
   fun:malloc
   fun:PyObject_Malloc
   obj:/usr/lib64/libpython2.7.so.1.0
   fun:_ZN5boost6python3apipLERNS1_6objectERKS2_
   fun:_ZN5boost6python7objects8function16add_to_namespaceERKNS0_3api6objectEPKcS6_S8_
   fun:_ZN5boost6python6class_ISt6vectorIN4dust8documentESaIS4_EENS0_6detail13not_specifiedES8_S8_E8def_implIS6_PFNS0_3api6objectENS0_14back_referenceIRS6_EEP7_objectENS7_10def_helperIPKcS8_S8_S8_EEEEvPT_SM_T0_RKT1_z
   fun:_ZN5boost6python6class_ISt6vectorIN4dust8documentESaIS4_EENS0_6detail13not_specifiedES8_S8_E3defIPFNS0_3api6objectENS0_14back_referenceIRS6_EEP7_objectEEERS9_PKcT_
   fun:_ZNK5boost6python14indexing_suiteISt6vectorIN4dust8documentESaIS4_EENS0_6detail29final_vector_derived_policiesIS6_Lb0EEELb0ELb0ES4_mS4_E5visitINS0_6class_IS6_NS7_13not_specifiedESD_SD_EEEEvRT_
   fun:_ZN5boost6python18def_visitor_access5visitINS0_11def_visitorINS0_14indexing_suiteISt6vectorIN4dust8documentESaIS7_EENS0_6detail29final_vector_derived_policiesIS9_Lb0EEELb0ELb0ES7_mS7_EEEENS0_6class_IS9_NSA_13not_specifiedESG_SG_EEEEvRKT_RT0_
   fun:_ZNK5boost6python11def_visitorINS0_14indexing_suiteISt6vectorIN4dust8documentESaIS5_EENS0_6detail29final_vector_derived_policiesIS7_Lb0EEELb0ELb0ES5_mS5_EEE5visitINS0_6class_IS7_NS8_13not_specifiedESF_SF_EEEEvRT_
   fun:_ZN5boost6python6class_ISt6vectorIN4dust8documentESaIS4_EENS0_6detail13not_specifiedES8_S8_E3defINS0_14indexing_suiteIS6_NS7_29final_vector_derived_policiesIS6_Lb0EEELb0ELb0ES4_mS4_EEEERS9_RKNS0_11def_visitorIT_EE
   fun:_ZN11dust_server16init_module_DustEv
}
{
   <insert_a_suppression_name_here>
   Memcheck:Leak
   fun:malloc
   fun:PyObject_Malloc
   obj:/usr/lib64/libpython2.7.so.1.0
   fun:_ZN5boost6python3apipLERNS1_6objectERKS2_
   fun:_ZN5boost6python7objects8function16add_to_namespaceERKNS0_3api6objectEPKcS6_S8_
   fun:_ZN5boost6python6class_ISt6vectorIN4dust8documentESaIS4_EENS0_6detail13not_specifiedES8_S8_E8def_implIS6_PFbRS6_P7_objectENS7_10def_helperIPKcS8_S8_S8_EEEEvPT_SI_T0_RKT1_z
   fun:_ZN5boost6python6class_ISt6vectorIN4dust8documentESaIS4_EENS0_6detail13not_specifiedES8_S8_E3defIPFbRS6_P7_objectEEERS9_PKcT_
   fun:_ZNK5boost6python14indexing_suiteISt6vectorIN4dust8documentESaIS4_EENS0_6detail29final_vector_derived_policiesIS6_Lb0EEELb0ELb0ES4_mS4_E5visitINS0_6class_IS6_NS7_13not_specifiedESD_SD_EEEEvRT_
   fun:_ZN5boost6python18def_visitor_access5visitINS0_11def_visitorINS0_14indexing_suiteISt6vectorIN4dust8documentESaIS7_EENS0_6detail29final_vector_derived_policiesIS9_Lb0EEELb0ELb0ES7_mS7_EEEENS0_6class_IS9_NSA_13not_specifiedESG_SG_EEEEvRKT_RT0_
   fun:_ZNK5boost6python11def_visitorINS0_14indexing_suiteISt6vectorIN4dust8documentESaIS5_EENS0_6detail29final_vector_derived_policiesIS7_Lb0EEELb0ELb0ES5_mS5_EEE5visitINS0_6class_IS7_NS8_13not_specifiedESF_SF_EEEEvRT_
   fun:_ZN5boost6python6class_ISt6vectorIN4dust8documentESaIS4_EENS0_6detail13not_specifiedES8_S8_E3defINS0_14indexing_suiteIS6_NS7_29final_vector_derived_policiesIS6_Lb0EEELb0ELb0ES4_mS4_EEEERS9_RKNS0_11def_visitorIT_EE
   fun:_ZN11dust_server16init_module_DustEv
}
{
   <insert_a_suppression_name_here>
   Memcheck:Leak
   fun:malloc
   fun:PyObject_Malloc
   obj:/usr/lib64/libpython2.7.so.1.0
   fun:_ZN5boost6python3apipLERNS1_6objectERKS2_
   fun:_ZN5boost6python7objects8function16add_to_namespaceERKNS0_3api6objectEPKcS6_S8_
   fun:_ZNK5boost6python3api16object_operatorsINS1_6objectEE5visitINS0_6class_ISt6vectorIN4dust8documentESaIS9_EENS0_6detail13not_specifiedESD_SD_EEPKcEEvRT_SG_RKNSC_10def_helperIT0_SD_SD_SD_EE
   fun:_ZN5boost6python18def_visitor_access5visitINS0_11def_visitorINS0_3api6objectEEENS0_6class_ISt6vectorIN4dust8documentESaISA_EENS0_6detail13not_specifiedESE_SE_EENSD_10def_helperIPKcSE_SE_SE_EEEEvRKT_RT0_SI_RKT1_
   fun:_ZNK5boost6python11def_visitorINS0_3api6objectEE5visitINS0_6class_ISt6vectorIN4dust8documentESaIS9_EENS0_6detail13not_specifiedESD_SD_EENSC_10def_helperIPKcSD_SD_SD_EEEEvRT_SH_RKT0_
   fun:_ZN5boost6python6class_ISt6vectorIN4dust8documentESaIS4_EENS0_6detail13not_specifiedES8_S8_E8def_implIS6_NS7_10def_helperIPKcS8_S8_S8_EENS0_8iteratorIS6_NS0_25return_internal_referenceILm1ENS0_21default_call_policiesEEEEENS0_3api6objectEEEvPT_SD_T1_RKT0_PKNS0_11def_visitorIT2_EE
   fun:_ZN5boost6python6class_ISt6vectorIN4dust8documentESaIS4_EENS0_6detail13not_specifiedES8_S8_E3defINS0_8iteratorIS6_NS0_25return_internal_referenceILm1ENS0_21default_call_policiesEEEEEEERS9_PKcT_
   fun:_ZNK5boost6python14indexing_suiteISt6vectorIN4dust8documentESaIS4_EENS0_6detail29final_vector_derived_policiesIS6_Lb0EEELb0ELb0ES4_mS4_E5visitINS0_6class_IS6_NS7_13not_specifiedESD_SD_EEEEvRT_
   fun:_ZN5boost6python18def_visitor_access5visitINS0_11def_visitorINS0_14indexing_suiteISt6vectorIN4dust8documentESaIS7_EENS0_6detail29final_vector_derived_policiesIS9_Lb0EEELb0ELb0ES7_mS7_EEEENS0_6class_IS9_NSA_13not_specifiedESG_SG_EEEEvRKT_RT0_
}
{
   <insert_a_suppression_name_here>
   Memcheck:Leak
   fun:malloc
   fun:PyObject_Malloc
   obj:/usr/lib64/libpython2.7.so.1.0
   fun:_ZN5boost6python3apipLERNS1_6objectERKS2_
   fun:_ZN5boost6python7objects8function16add_to_namespaceERKNS0_3api6objectEPKcS6_S8_
   fun:_ZN5boost6python6class_ISt6vectorIN4dust8documentESaIS4_EENS0_6detail13not_specifiedES8_S8_E8def_implIS6_PFvRS6_NS0_3api6objectEENS7_10def_helperIPKcS8_S8_S8_EEEEvPT_SI_T0_RKT1_z
   fun:_ZN5boost6python6class_ISt6vectorIN4dust8documentESaIS4_EENS0_6detail13not_specifiedES8_S8_E3defIPFvRS6_NS0_3api6objectEEEERS9_PKcT_
   fun:_ZN5boost6python21vector_indexing_suiteISt6vectorIN4dust8documentESaIS4_EELb0ENS0_6detail29final_vector_derived_policiesIS6_Lb0EEEE13extension_defINS0_6class_IS6_NS7_13not_specifiedESD_SD_EEEEvRT_
   fun:_ZNK5boost6python14indexing_suiteISt6vectorIN4dust8documentESaIS4_EENS0_6detail29final_vector_derived_policiesIS6_Lb0EEELb0ELb0ES4_mS4_E5visitINS0_6class_IS6_NS7_13not_specifiedESD_SD_EEEEvRT_
   fun:_ZN5boost6python18def_visitor_access5visitINS0_11def_visitorINS0_14indexing_suiteISt6vectorIN4dust8documentESaIS7_EENS0_6detail29final_vector_derived_policiesIS9_Lb0EEELb0ELb0ES7_mS7_EEEENS0_6class_IS9_NSA_13not_specifiedESG_SG_EEEEvRKT_RT0_
   fun:_ZNK5boost6python11def_visitorINS0_14indexing_suiteISt6vectorIN4dust8documentESaIS5_EENS0_6detail29final_vector_derived_policiesIS7_Lb0EEELb0ELb0ES5_mS5_EEE5visitINS0_6class_IS7_NS8_13not_specifiedESF_SF_EEEEvRT_
   fun:_ZN5boost6python6class_ISt6vectorIN4dust8documentESaIS4_EENS0_6detail13not_specifiedES8_S8_E3defINS0_14indexing_suiteIS6_NS7_29final_vector_derived_policiesIS6_Lb0EEELb0ELb0ES4_mS4_EEEERS9_RKNS0_11def_visitorIT_EE
}
{
   <insert_a_suppression_name_here>
   Memcheck:Leak
   fun:malloc
   fun:PyObject_Malloc
   fun:_PyObject_GC_Malloc
   fun:_PyObject_GC_NewVar
   fun:PyTuple_New
   fun:PyList_AsTuple
   fun:PySequence_Tuple
   obj:/usr/lib64/libpython2.7.so.1.0
   fun:PyType_Ready
   fun:_Py_ReadyTypes
   fun:Py_InitializeEx
   fun:_ZN11dust_server17PythonInitializerC2Ev
}
{
   <insert_a_suppression_name_here>
   Memcheck:Leak
   fun:malloc
   fun:PyObject_Malloc
   fun:_PyObject_GC_Malloc
   fun:_PyObject_GC_NewVar
   fun:PyTuple_New
   obj:/usr/lib64/libpython2.7.so.1.0
   obj:/usr/lib64/libpython2.7.so.1.0
   obj:/usr/lib64/libpython2.7.so.1.0
   obj:/usr/lib64/libpython2.7.so.1.0
   obj:/usr/lib64/libpython2.7.so.1.0
   obj:/usr/lib64/libpython2.7.so.1.0
   obj:/usr/lib64/libpython2.7.so.1.0
}
{
   <insert_a_suppression_name_here>
   Memcheck:Leak
   fun:malloc
   fun:PyObject_Malloc
   fun:_PyObject_GC_Malloc
   fun:_PyObject_GC_NewVar
   fun:PyTuple_New
   fun:PyList_AsTuple
   fun:PySequence_Tuple
   obj:/usr/lib64/libpython2.7.so.1.0
   fun:PyType_Ready
   fun:PyStructSequence_InitType
   fun:_PyLong_Init
   fun:Py_InitializeEx
}
{
   <insert_a_suppression_name_here>
   Memcheck:Leak
   fun:malloc
   fun:PyObject_Malloc
   fun:_PyObject_GC_Malloc
   fun:_PyObject_GC_NewVar
   fun:PyTuple_New
   fun:PyList_AsTuple
   fun:PySequence_Tuple
   obj:/usr/lib64/libpython2.7.so.1.0
   fun:PyType_Ready
   fun:PyStructSequence_InitType
   fun:Py_InitializeEx
   fun:_ZN11dust_server17PythonInitializerC2Ev
}
{
   <insert_a_suppression_name_here>
   Memcheck:Leak
   fun:malloc
   fun:PyObject_Malloc
   fun:_PyObject_GC_Malloc
   fun:_PyObject_GC_NewVar
   fun:PyTuple_New
   fun:PyList_AsTuple
   fun:PySequence_Tuple
   obj:/usr/lib64/libpython2.7.so.1.0
   fun:PyType_Ready
   fun:_PyUnicodeUCS4_Init
   fun:Py_InitializeEx
   fun:_ZN11dust_server17PythonInitializerC2Ev
}
{
   <insert_a_suppression_name_here>
   Memcheck:Leak
   fun:malloc
   fun:PyObject_Malloc
   fun:_PyObject_GC_Malloc
   fun:_PyObject_GC_NewVar
   fun:PyTuple_New
   fun:PyList_AsTuple
   fun:PySequence_Tuple
   obj:/usr/lib64/libpython2.7.so.1.0
   fun:PyType_Ready
   fun:PyStructSequence_InitType
   fun:_PySys_Init
   fun:Py_InitializeEx
}
{
   <insert_a_suppression_name_here>
   Memcheck:Leak
   fun:malloc
   fun:PyObject_Malloc
   fun:_PyObject_GC_Malloc
   fun:_PyObject_GC_NewVar
   fun:PyTuple_New
   fun:PyList_AsTuple
   fun:PySequence_Tuple
   obj:/usr/lib64/libpython2.7.so.1.0
   fun:PyType_Ready
   fun:_PyExc_Init
   fun:Py_InitializeEx
   fun:_ZN11dust_server17PythonInitializerC2Ev
}
{
   <insert_a_suppression_name_here>
   Memcheck:Leak
   fun:malloc
   fun:PyObject_Malloc
   fun:_PyObject_GC_Malloc
   fun:_PyObject_GC_NewVar
   fun:PyTuple_New
   fun:PyList_AsTuple
   fun:PySequence_Tuple
   obj:/usr/lib64/libpython2.7.so.1.0
   fun:PyType_Ready
   fun:_PyObject_GenericGetAttrWithDict
   fun:PyImport_Import
   fun:PyImport_ImportModule
}
{
   <insert_a_suppression_name_here>
   Memcheck:Leak
   fun:malloc
   fun:PyObject_Malloc
   fun:_PyObject_GC_Malloc
   fun:_PyObject_GC_NewVar
   fun:PyTuple_New
   fun:PyList_AsTuple
   fun:PySequence_Tuple
   obj:/usr/lib64/libpython2.7.so.1.0
   fun:PyType_Ready
   fun:_PyImportHooks_Init
   fun:Py_InitializeEx
   fun:_ZN11dust_server17PythonInitializerC2Ev
}
{
   <insert_a_suppression_name_here>
   Memcheck:Leak
   fun:malloc
   fun:PyObject_Malloc
   fun:_PyObject_GC_Malloc
   fun:_PyObject_GC_NewVar
   fun:PyTuple_New
   fun:PyList_AsTuple
   fun:PySequence_Tuple
   obj:/usr/lib64/libpython2.7.so.1.0
   fun:PyType_Ready
   fun:initzipimport
   obj:/usr/lib64/libpython2.7.so.1.0
   obj:/usr/lib64/libpython2.7.so.1.0
}
{
   <insert_a_suppression_name_here>
   Memcheck:Leak
   fun:malloc
   fun:PyObject_Malloc
   fun:_PyObject_GC_Malloc
   fun:_PyObject_GC_NewVar
   fun:PyTuple_New
   fun:PyList_AsTuple
   fun:PySequence_Tuple
   obj:/usr/lib64/libpython2.7.so.1.0
   fun:PyType_Ready
   fun:PyStructSequence_InitType
   fun:initposix
   obj:/usr/lib64/libpython2.7.so.1.0
}
{
   <insert_a_suppression_name_here>
   Memcheck:Leak
   fun:malloc
   fun:PyObject_Malloc
   fun:_PyObject_GC_Malloc
   fun:_PyObject_GC_NewVar
   fun:PyTuple_New
   obj:/usr/lib64/libpython2.7.so.1.0
   fun:PyEval_EvalFrameEx
   fun:PyEval_EvalCodeEx
   obj:/usr/lib64/libpython2.7.so.1.0
   fun:PyObject_Call
   obj:/usr/lib64/libpython2.7.so.1.0
   obj:/usr/lib64/libpython2.7.so.1.0
}
{
   <insert_a_suppression_name_here>
   Memcheck:Leak
   fun:malloc
   fun:PyObject_Malloc
   fun:_PyObject_GC_Malloc
   fun:_PyObject_GC_NewVar
   fun:PyTuple_New
   fun:PyList_AsTuple
   fun:PySequence_Tuple
   obj:/usr/lib64/libpython2.7.so.1.0
   fun:PyType_Ready
   fun:_PyObject_GenericGetAttrWithDict
   obj:/usr/lib64/libpython2.7.so.1.0
   fun:PyEval_EvalFrameEx
}
{
   <insert_a_suppression_name_here>
   Memcheck:Leak
   fun:malloc
   fun:PyObject_Malloc
   fun:_PyObject_GC_Malloc
   fun:_PyObject_GC_NewVar
   fun:PyTuple_New
   fun:PyList_AsTuple
   fun:PySequence_Tuple
   obj:/usr/lib64/libpython2.7.so.1.0
   fun:PyType_Ready
   fun:init_sre
   obj:/usr/lib64/libpython2.7.so.1.0
   obj:/usr/lib64/libpython2.7.so.1.0
}
{
   <insert_a_suppression_name_here>
   Memcheck:Leak
   fun:_Znwm
   fun:_ZN5boost6python7objects15function_objectERKNS1_11py_functionERKSt4pairIPKNS0_6detail7keywordES9_E
   fun:_ZN5boost6python6detail17make_function_auxIPFvP7_objectSt8weak_ptrIN4dust15key_value_storeEESsENS0_21default_call_policiesENS_3mpl7vector4IvS4_S8_SsEEN4mpl_4int_ILi0EEEEENS0_3api6objectET_RKT0_RKT1_RKSt4pairIPKNS1_7keywordESU_ET2_
   fun:_ZN5boost6python6detail27make_keyword_range_functionIPFvP7_objectSt8weak_ptrIN4dust15key_value_storeEESsENS0_21default_call_policiesEEENS0_3api6objectET_RKT0_RKSt4pairIPKNS1_7keywordESL_E
   fun:_ZN5boost6python6detail30make_keyword_range_constructorINS_3mpl7vector2ISt8weak_ptrIN4dust15key_value_storeEESsEENS3_4sizeIS9_EENS0_7objects12value_holderINS6_8documentEEENS0_21default_call_policiesEEENS0_3api6objectERKT2_RKSt4pairIPKNS1_7keywordESP_EPT1_PT_PT0_
   fun:_ZN5boost6python6detail12def_init_auxINS0_6class_IN4dust8documentENS1_13not_specifiedES6_S6_EENS0_21default_call_policiesENS_3mpl7vector2ISt8weak_ptrINS4_15key_value_storeEESsEENS9_4sizeISE_EEEEvRT_RKT1_T2_RKT0_PKcRKSt4pairIPKNS1_7keywordESV_E
   fun:_ZN5boost6python6detail24define_class_init_helperILi0EE5applyINS0_6class_IN4dust8documentENS1_13not_specifiedES8_S8_EENS0_21default_call_policiesENS_3mpl7vector2ISt8weak_ptrINS6_15key_value_storeEESsEENSB_4sizeISG_EEEEvRT_RKT0_RKT1_T2_PKcRKSt4pairIPKNS1_7keywordESX_E
   fun:_ZNK5boost6python9init_baseINS0_4initISt8weak_ptrIN4dust15key_value_storeEESsN4mpl_5void_ES8_S8_S8_S8_S8_S8_S8_S8_S8_S8_S8_S8_EEE5visitINS0_6class_INS4_8documentENS0_6detail13not_specifiedESF_SF_EEEEvRT_
   fun:_ZN5boost6python18def_visitor_access5visitINS0_11def_visitorINS0_4initISt8weak_ptrIN4dust15key_value_storeEESsN4mpl_5void_ESA_SA_SA_SA_SA_SA_SA_SA_SA_SA_SA_SA_EEEENS0_6class_INS6_8documentENS0_6detail13not_specifiedESG_SG_EEEEvRKT_RT0_
   fun:_ZNK5boost6python11def_visitorINS0_4initISt8weak_ptrIN4dust15key_value_storeEESsN4mpl_5void_ES8_S8_S8_S8_S8_S8_S8_S8_S8_S8_S8_S8_EEE5visitINS0_6class_INS4_8documentENS0_6detail13not_specifiedESF_SF_EEEEvRT_
   fun:_ZN5boost6python6class_IN4dust8documentENS0_6detail13not_specifiedES5_S5_E3defINS0_4initISt8weak_ptrINS2_15key_value_storeEESsN4mpl_5void_ESD_SD_SD_SD_SD_SD_SD_SD_SD_SD_SD_SD_EEEERS6_RKNS0_11def_visitorIT_EE
   fun:_ZN5boost6python6class_IN4dust8documentENS0_6detail13not_specifiedES5_S5_E10initializeINS0_9init_baseINS0_4initISt8weak_ptrINS2_15key_value_storeEESsN4mpl_5void_ESE_SE_SE_SE_SE_SE_SE_SE_SE_SE_SE_SE_EEEEEEvRKT_
}
{
   <insert_a_suppression_name_here>
   Memcheck:Leak
   fun:_Znwm
   fun:_ZN5boost6python7objects15function_objectERKNS1_11py_functionERKSt4pairIPKNS0_6detail7keywordES9_E
   fun:_ZN5boost6python6detail17make_function_auxIMN4dust8documentEKFS4_RKSsENS0_21default_call_policiesENS_3mpl7vector3IS4_RS4_S6_EEN4mpl_4int_ILi0EEEEENS0_3api6objectET_RKT0_RKT1_RKSt4pairIPKNS1_7keywordEST_ET2_
   fun:_ZN5boost6python13make_functionIMN4dust8documentEKFS3_RKSsENS0_21default_call_policiesENS0_6detail8keywordsILm0EEENS_3mpl7vector3IS3_RS3_S5_EEEENS0_3api6objectET_RKT0_RKT1_RKT2_
   fun:_ZN5boost6python6class_IN4dust8documentENS0_6detail13not_specifiedES5_S5_E8def_implIS3_MS3_KFS3_RKSsENS4_10def_helperIPKcS5_S5_S5_EEEEvPT_SE_T0_RKT1_z
   fun:_ZN5boost6python6class_IN4dust8documentENS0_6detail13not_specifiedES5_S5_E3defIMS3_KFS3_RKSsEEERS6_PKcT_
   fun:_ZN11dust_server16init_module_DustEv
   fun:_ZN5boost6python21handle_exception_implENS_9function0IvEE
   fun:_ZN5boost6python6detail11init_moduleEPKcPFvvE
   fun:initDust
   fun:_ZN11dust_server17PythonInitializerC2Ev
   fun:_ZN11dust_server17PythonInitializerC1Ev
}
{
   <insert_a_suppression_name_here>
   Memcheck:Leak
   fun:_Znwm
   fun:_ZN5boost6python7objects15function_objectERKNS1_11py_functionERKSt4pairIPKNS0_6detail7keywordES9_E
   fun:_ZN5boost6python6detail17make_function_auxIMN4dust8documentEFvRKSsENS0_21default_call_policiesENS_3mpl7vector3IvRS4_S6_EEN4mpl_4int_ILi0EEEEENS0_3api6objectET_RKT0_RKT1_RKSt4pairIPKNS1_7keywordEST_ET2_
   fun:_ZN5boost6python13make_functionIMN4dust8documentEFvRKSsENS0_21default_call_policiesENS0_6detail8keywordsILm0EEENS_3mpl7vector3IvRS3_S5_EEEENS0_3api6objectET_RKT0_RKT1_RKT2_
   fun:_ZN5boost6python6class_IN4dust8documentENS0_6detail13not_specifiedES5_S5_E8def_implIS3_MS3_FvRKSsENS4_10def_helperIPKcS5_S5_S5_EEEEvPT_SE_T0_RKT1_z
   fun:_ZN5boost6python6class_IN4dust8documentENS0_6detail13not_specifiedES5_S5_E3defIMS3_FvRKSsEEERS6_PKcT_
   fun:_ZN11dust_server16init_module_DustEv
   fun:_ZN5boost6python21handle_exception_implENS_9function0IvEE
   fun:_ZN5boost6python6detail11init_moduleEPKcPFvvE
   fun:initDust
   fun:_ZN11dust_server17PythonInitializerC2Ev
   fun:_ZN11dust_server17PythonInitializerC1Ev
}
{
   <insert_a_suppression_name_here>
   Memcheck:Leak
   fun:_Znwm
   fun:_ZN5boost6python7objects15function_objectERKNS1_11py_functionERKSt4pairIPKNS0_6detail7keywordES9_E
   fun:_ZN5boost6python6detail17make_function_auxIMN4dust8documentEKFSsvENS0_21default_call_policiesENS_3mpl7vector2ISsRS4_EEN4mpl_4int_ILi0EEEEENS0_3api6objectET_RKT0_RKT1_RKSt4pairIPKNS1_7keywordESR_ET2_
   fun:_ZN5boost6python13make_functionIMN4dust8documentEKFSsvENS0_21default_call_policiesENS0_6detail8keywordsILm0EEENS_3mpl7vector2ISsRS3_EEEENS0_3api6objectET_RKT0_RKT1_RKT2_
   fun:_ZN5boost6python6class_IN4dust8documentENS0_6detail13not_specifiedES5_S5_E8def_implIS3_MS3_KFSsvENS4_10def_helperIPKcS5_S5_S5_EEEEvPT_SC_T0_RKT1_z
   fun:_ZN5boost6python6class_IN4dust8documentENS0_6detail13not_specifiedES5_S5_E3defIMS3_KFSsvEEERS6_PKcT_
   fun:_ZN11dust_server16init_module_DustEv
   fun:_ZN5boost6python21handle_exception_implENS_9function0IvEE
   fun:_ZN5boost6python6detail11init_moduleEPKcPFvvE
   fun:initDust
   fun:_ZN11dust_server17PythonInitializerC2Ev
   fun:_ZN11dust_server17PythonInitializerC1Ev
}
{
   <insert_a_suppression_name_here>
   Memcheck:Leak
   fun:_Znwm
   fun:_ZN5boost6python7objects15function_objectERKNS1_11py_functionERKSt4pairIPKNS0_6detail7keywordES9_E
   fun:_ZN5boost6python6detail17make_function_auxIMN4dust8documentEKFbvENS0_21default_call_policiesENS_3mpl7vector2IbRS4_EEN4mpl_4int_ILi0EEEEENS0_3api6objectET_RKT0_RKT1_RKSt4pairIPKNS1_7keywordESR_ET2_
   fun:_ZN5boost6python13make_functionIMN4dust8documentEKFbvENS0_21default_call_policiesENS0_6detail8keywordsILm0EEENS_3mpl7vector2IbRS3_EEEENS0_3api6objectET_RKT0_RKT1_RKT2_
   fun:_ZN5boost6python6class_IN4dust8documentENS0_6detail13not_specifiedES5_S5_E8def_implIS3_MS3_KFbvENS4_10def_helperIPKcS5_S5_S5_EEEEvPT_SC_T0_RKT1_z
   fun:_ZN5boost6python6class_IN4dust8documentENS0_6detail13not_specifiedES5_S5_E3defIMS3_KFbvEEERS6_PKcT_
   fun:_ZN11dust_server16init_module_DustEv
   fun:_ZN5boost6python21handle_exception_implENS_9function0IvEE
   fun:_ZN5boost6python6detail11init_moduleEPKcPFvvE
   fun:initDust
   fun:_ZN11dust_server17PythonInitializerC2Ev
   fun:_ZN11dust_server17PythonInitializerC1Ev
}
{
   <insert_a_suppression_name_here>
   Memcheck:Leak
   fun:_Znwm
   fun:_ZN5boost6python7objects15function_objectERKNS1_11py_functionERKSt4pairIPKNS0_6detail7keywordES9_E
   fun:_ZN5boost6python6detail17make_function_auxIMN4dust8documentEFvvENS0_21default_call_policiesENS_3mpl7vector2IvRS4_EEN4mpl_4int_ILi0EEEEENS0_3api6objectET_RKT0_RKT1_RKSt4pairIPKNS1_7keywordESR_ET2_
   fun:_ZN5boost6python13make_functionIMN4dust8documentEFvvENS0_21default_call_policiesENS0_6detail8keywordsILm0EEENS_3mpl7vector2IvRS3_EEEENS0_3api6objectET_RKT0_RKT1_RKT2_
   fun:_ZN5boost6python6class_IN4dust8documentENS0_6detail13not_specifiedES5_S5_E8def_implIS3_MS3_FvvENS4_10def_helperIPKcS5_S5_S5_EEEEvPT_SC_T0_RKT1_z
   fun:_ZN5boost6python6class_IN4dust8documentENS0_6detail13not_specifiedES5_S5_E3defIMS3_FvvEEERS6_PKcT_
   fun:_ZN11dust_server16init_module_DustEv
   fun:_ZN5boost6python21handle_exception_implENS_9function0IvEE
   fun:_ZN5boost6python6detail11init_moduleEPKcPFvvE
   fun:initDust
   fun:_ZN11dust_server17PythonInitializerC2Ev
   fun:_ZN11dust_server17PythonInitializerC1Ev
}
{
   <insert_a_suppression_name_here>
   Memcheck:Leak
   fun:_Znwm
   fun:_ZN5boost6python7objects15function_objectERKNS1_11py_functionERKSt4pairIPKNS0_6detail7keywordES9_E
   fun:_ZN5boost6python6detail17make_function_auxIMN4dust8documentEKFSt6vectorIS4_SaIS4_EEvENS0_21default_call_policiesENS_3mpl7vector2IS7_RS4_EEN4mpl_4int_ILi0EEEEENS0_3api6objectET_RKT0_RKT1_RKSt4pairIPKNS1_7keywordESU_ET2_
   fun:_ZN5boost6python13make_functionIMN4dust8documentEKFSt6vectorIS3_SaIS3_EEvENS0_21default_call_policiesENS0_6detail8keywordsILm0EEENS_3mpl7vector2IS6_RS3_EEEENS0_3api6objectET_RKT0_RKT1_RKT2_
   fun:_ZN5boost6python6class_IN4dust8documentENS0_6detail13not_specifiedES5_S5_E8def_implIS3_MS3_KFSt6vectorIS3_SaIS3_EEvENS4_10def_helperIPKcS5_S5_S5_EEEEvPT_SF_T0_RKT1_z
   fun:_ZN5boost6python6class_IN4dust8documentENS0_6detail13not_specifiedES5_S5_E3defIMS3_KFSt6vectorIS3_SaIS3_EEvEEERS6_PKcT_
   fun:_ZN11dust_server16init_module_DustEv
   fun:_ZN5boost6python21handle_exception_implENS_9function0IvEE
   fun:_ZN5boost6python6detail11init_moduleEPKcPFvvE
   fun:initDust
   fun:_ZN11dust_server17PythonInitializerC2Ev
   fun:_ZN11dust_server17PythonInitializerC1Ev
}
{
   <insert_a_suppression_name_here>
   Memcheck:Leak
   fun:_Znwm
   fun:_ZN5boost6python7objects15function_objectERKNS1_11py_functionERKSt4pairIPKNS0_6detail7keywordES9_E
   fun:_ZN5boost6python6detail17make_function_auxIPFvP7_objectENS0_21default_call_policiesENS_3mpl7vector2IvS4_EEN4mpl_4int_ILi0EEEEENS0_3api6objectET_RKT0_RKT1_RKSt4pairIPKNS1_7keywordESQ_ET2_
   fun:_ZN5boost6python6detail27make_keyword_range_functionIPFvP7_objectENS0_21default_call_policiesEEENS0_3api6objectET_RKT0_RKSt4pairIPKNS1_7keywordESH_E
   fun:_ZN5boost6python6detail30make_keyword_range_constructorINS_3mpl7vector0IN4mpl_2naEEENS3_4sizeIS7_EENS0_7objects12value_holderISt6vectorIN4dust8documentESaISE_EEEENS0_21default_call_policiesEEENS0_3api6objectERKT2_RKSt4pairIPKNS1_7keywordESR_EPT1_PT_PT0_
   fun:_ZN5boost6python6detail12def_init_auxINS0_6class_ISt6vectorIN4dust8documentESaIS6_EENS1_13not_specifiedES9_S9_EENS0_21default_call_policiesENS_3mpl7vector0IN4mpl_2naEEENSC_4sizeISG_EEEEvRT_RKT1_T2_RKT0_PKcRKSt4pairIPKNS1_7keywordESX_E
   fun:_ZN5boost6python6detail24define_class_init_helperILi0EE5applyINS0_6class_ISt6vectorIN4dust8documentESaIS8_EENS1_13not_specifiedESB_SB_EENS0_21default_call_policiesENS_3mpl7vector0IN4mpl_2naEEENSE_4sizeISI_EEEEvRT_RKT0_RKT1_T2_PKcRKSt4pairIPKNS1_7keywordESZ_E
   fun:_ZNK5boost6python9init_baseINS0_4initIN4mpl_5void_ES4_S4_S4_S4_S4_S4_S4_S4_S4_S4_S4_S4_S4_S4_EEE5visitINS0_6class_ISt6vectorIN4dust8documentESaISB_EENS0_6detail13not_specifiedESF_SF_EEEEvRT_
   fun:_ZN5boost6python18def_visitor_access5visitINS0_11def_visitorINS0_4initIN4mpl_5void_ES6_S6_S6_S6_S6_S6_S6_S6_S6_S6_S6_S6_S6_S6_EEEENS0_6class_ISt6vectorIN4dust8documentESaISC_EENS0_6detail13not_specifiedESG_SG_EEEEvRKT_RT0_
   fun:_ZNK5boost6python11def_visitorINS0_4initIN4mpl_5void_ES4_S4_S4_S4_S4_S4_S4_S4_S4_S4_S4_S4_S4_S4_EEE5visitINS0_6class_ISt6vectorIN4dust8documentESaISB_EENS0_6detail13not_specifiedESF_SF_EEEEvRT_
   fun:_ZN5boost6python6class_ISt6vectorIN4dust8documentESaIS4_EENS0_6detail13not_specifiedES8_S8_E3defINS0_4initIN4mpl_5void_ESD_SD_SD_SD_SD_SD_SD_SD_SD_SD_SD_SD_SD_SD_EEEERS9_RKNS0_11def_visitorIT_EE
   fun:_ZN5boost6python6class_ISt6vectorIN4dust8documentESaIS4_EENS0_6detail13not_specifiedES8_S8_E10initializeINS0_4initIN4mpl_5void_ESD_SD_SD_SD_SD_SD_SD_SD_SD_SD_SD_SD_SD_SD_EEEEvRKT_
}
{
   <insert_a_suppression_name_here>
   Memcheck:Leak
   fun:_Znwm
   fun:_ZN5boost6python7objects15function_objectERKNS1_11py_functionERKSt4pairIPKNS0_6detail7keywordES9_E
   fun:_ZN5boost6python6detail17make_function_auxIPFmRSt6vectorIN4dust8documentESaIS5_EEENS0_21default_call_policiesENS_3mpl7vector2ImS8_EEN4mpl_4int_ILi0EEEEENS0_3api6objectET_RKT0_RKT1_RKSt4pairIPKNS1_7keywordESU_ET2_
   fun:_ZN5boost6python13make_functionIPFmRSt6vectorIN4dust8documentESaIS4_EEENS0_21default_call_policiesENS0_6detail8keywordsILm0EEENS_3mpl7vector2ImS7_EEEENS0_3api6objectET_RKT0_RKT1_RKT2_
   fun:_ZN5boost6python6class_ISt6vectorIN4dust8documentESaIS4_EENS0_6detail13not_specifiedES8_S8_E8def_implIS6_PFmRS6_ENS7_10def_helperIPKcS8_S8_S8_EEEEvPT_SG_T0_RKT1_z
   fun:_ZN5boost6python6class_ISt6vectorIN4dust8documentESaIS4_EENS0_6detail13not_specifiedES8_S8_E3defIPFmRS6_EEERS9_PKcT_
   fun:_ZNK5boost6python14indexing_suiteISt6vectorIN4dust8documentESaIS4_EENS0_6detail29final_vector_derived_policiesIS6_Lb0EEELb0ELb0ES4_mS4_E5visitINS0_6class_IS6_NS7_13not_specifiedESD_SD_EEEEvRT_
   fun:_ZN5boost6python18def_visitor_access5visitINS0_11def_visitorINS0_14indexing_suiteISt6vectorIN4dust8documentESaIS7_EENS0_6detail29final_vector_derived_policiesIS9_Lb0EEELb0ELb0ES7_mS7_EEEENS0_6class_IS9_NSA_13not_specifiedESG_SG_EEEEvRKT_RT0_
   fun:_ZNK5boost6python11def_visitorINS0_14indexing_suiteISt6vectorIN4dust8documentESaIS5_EENS0_6detail29final_vector_derived_policiesIS7_Lb0EEELb0ELb0ES5_mS5_EEE5visitINS0_6class_IS7_NS8_13not_specifiedESF_SF_EEEEvRT_
   fun:_ZN5boost6python6class_ISt6vectorIN4dust8documentESaIS4_EENS0_6detail13not_specifiedES8_S8_E3defINS0_14indexing_suiteIS6_NS7_29final_vector_derived_policiesIS6_Lb0EEELb0ELb0ES4_mS4_EEEERS9_RKNS0_11def_visitorIT_EE
   fun:_ZN11dust_server16init_module_DustEv
   fun:_ZN5boost6python21handle_exception_implENS_9function0IvEE
}
{
   <insert_a_suppression_name_here>
   Memcheck:Leak
   fun:_Znwm
   fun:_ZN5boost6python7objects15function_objectERKNS1_11py_functionERKSt4pairIPKNS0_6detail7keywordES9_E
   fun:_ZN5boost6python6detail17make_function_auxIPFvRSt6vectorIN4dust8documentESaIS5_EEP7_objectSA_ENS0_21default_call_policiesENS_3mpl7vector4IvS8_SA_SA_EEN4mpl_4int_ILi0EEEEENS0_3api6objectET_RKT0_RKT1_RKSt4pairIPKNS1_7keywordESW_ET2_
   fun:_ZN5boost6python13make_functionIPFvRSt6vectorIN4dust8documentESaIS4_EEP7_objectS9_ENS0_21default_call_policiesENS0_6detail8keywordsILm0EEENS_3mpl7vector4IvS7_S9_S9_EEEENS0_3api6objectET_RKT0_RKT1_RKT2_
   fun:_ZN5boost6python6class_ISt6vectorIN4dust8documentESaIS4_EENS0_6detail13not_specifiedES8_S8_E8def_implIS6_PFvRS6_P7_objectSD_ENS7_10def_helperIPKcS8_S8_S8_EEEEvPT_SI_T0_RKT1_z
   fun:_ZN5boost6python6class_ISt6vectorIN4dust8documentESaIS4_EENS0_6detail13not_specifiedES8_S8_E3defIPFvRS6_P7_objectSD_EEERS9_PKcT_
   fun:_ZNK5boost6python14indexing_suiteISt6vectorIN4dust8documentESaIS4_EENS0_6detail29final_vector_derived_policiesIS6_Lb0EEELb0ELb0ES4_mS4_E5visitINS0_6class_IS6_NS7_13not_specifiedESD_SD_EEEEvRT_
   fun:_ZN5boost6python18def_visitor_access5visitINS0_11def_visitorINS0_14indexing_suiteISt6vectorIN4dust8documentESaIS7_EENS0_6detail29final_vector_derived_policiesIS9_Lb0EEELb0ELb0ES7_mS7_EEEENS0_6class_IS9_NSA_13not_specifiedESG_SG_EEEEvRKT_RT0_
   fun:_ZNK5boost6python11def_visitorINS0_14indexing_suiteISt6vectorIN4dust8documentESaIS5_EENS0_6detail29final_vector_derived_policiesIS7_Lb0EEELb0ELb0ES5_mS5_EEE5visitINS0_6class_IS7_NS8_13not_specifiedESF_SF_EEEEvRT_
   fun:_ZN5boost6python6class_ISt6vectorIN4dust8documentESaIS4_EENS0_6detail13not_specifiedES8_S8_E3defINS0_14indexing_suiteIS6_NS7_29final_vector_derived_policiesIS6_Lb0EEELb0ELb0ES4_mS4_EEEERS9_RKNS0_11def_visitorIT_EE
   fun:_ZN11dust_server16init_module_DustEv
   fun:_ZN5boost6python21handle_exception_implENS_9function0IvEE
}
{
   <insert_a_suppression_name_here>
   Memcheck:Leak
   fun:_Znwm
   fun:_ZN5boost6python7objects15function_objectERKNS1_11py_functionERKSt4pairIPKNS0_6detail7keywordES9_E
   fun:_ZN5boost6python6detail17make_function_auxIPFvRSt6vectorIN4dust8documentESaIS5_EEP7_objectENS0_21default_call_policiesENS_3mpl7vector3IvS8_SA_EEN4mpl_4int_ILi0EEEEENS0_3api6objectET_RKT0_RKT1_RKSt4pairIPKNS1_7keywordESW_ET2_
   fun:_ZN5boost6python13make_functionIPFvRSt6vectorIN4dust8documentESaIS4_EEP7_objectENS0_21default_call_policiesENS0_6detail8keywordsILm0EEENS_3mpl7vector3IvS7_S9_EEEENS0_3api6objectET_RKT0_RKT1_RKT2_
   fun:_ZN5boost6python6class_ISt6vectorIN4dust8documentESaIS4_EENS0_6detail13not_specifiedES8_S8_E8def_implIS6_PFvRS6_P7_objectENS7_10def_helperIPKcS8_S8_S8_EEEEvPT_SI_T0_RKT1_z
   fun:_ZN5boost6python6class_ISt6vectorIN4dust8documentESaIS4_EENS0_6detail13not_specifiedES8_S8_E3defIPFvRS6_P7_objectEEERS9_PKcT_
   fun:_ZNK5boost6python14indexing_suiteISt6vectorIN4dust8documentESaIS4_EENS0_6detail29final_vector_derived_policiesIS6_Lb0EEELb0ELb0ES4_mS4_E5visitINS0_6class_IS6_NS7_13not_specifiedESD_SD_EEEEvRT_
   fun:_ZN5boost6python18def_visitor_access5visitINS0_11def_visitorINS0_14indexing_suiteISt6vectorIN4dust8documentESaIS7_EENS0_6detail29final_vector_derived_policiesIS9_Lb0EEELb0ELb0ES7_mS7_EEEENS0_6class_IS9_NSA_13not_specifiedESG_SG_EEEEvRKT_RT0_
   fun:_ZNK5boost6python11def_visitorINS0_14indexing_suiteISt6vectorIN4dust8documentESaIS5_EENS0_6detail29final_vector_derived_policiesIS7_Lb0EEELb0ELb0ES5_mS5_EEE5visitINS0_6class_IS7_NS8_13not_specifiedESF_SF_EEEEvRT_
   fun:_ZN5boost6python6class_ISt6vectorIN4dust8documentESaIS4_EENS0_6detail13not_specifiedES8_S8_E3defINS0_14indexing_suiteIS6_NS7_29final_vector_derived_policiesIS6_Lb0EEELb0ELb0ES4_mS4_EEEERS9_RKNS0_11def_visitorIT_EE
   fun:_ZN11dust_server16init_module_DustEv
   fun:_ZN5boost6python21handle_exception_implENS_9function0IvEE
}
{
   <insert_a_suppression_name_here>
   Memcheck:Leak
   fun:_Znwm
   fun:_ZN5boost6python7objects15function_objectERKNS1_11py_functionERKSt4pairIPKNS0_6detail7keywordES9_E
   fun:_ZN5boost6python6detail17make_function_auxIPFNS0_3api6objectENS0_14back_referenceIRSt6vectorIN4dust8documentESaIS8_EEEEP7_objectENS0_21default_call_policiesENS_3mpl7vector3IS4_SC_SE_EEN4mpl_4int_ILi0EEEEES4_T_RKT0_RKT1_RKSt4pairIPKNS1_7keywordESY_ET2_
   fun:_ZN5boost6python13make_functionIPFNS0_3api6objectENS0_14back_referenceIRSt6vectorIN4dust8documentESaIS7_EEEEP7_objectENS0_21default_call_policiesENS0_6detail8keywordsILm0EEENS_3mpl7vector3IS3_SB_SD_EEEES3_T_RKT0_RKT1_RKT2_
   fun:_ZN5boost6python6class_ISt6vectorIN4dust8documentESaIS4_EENS0_6detail13not_specifiedES8_S8_E8def_implIS6_PFNS0_3api6objectENS0_14back_referenceIRS6_EEP7_objectENS7_10def_helperIPKcS8_S8_S8_EEEEvPT_SM_T0_RKT1_z
   fun:_ZN5boost6python6class_ISt6vectorIN4dust8documentESaIS4_EENS0_6detail13not_specifiedES8_S8_E3defIPFNS0_3api6objectENS0_14back_referenceIRS6_EEP7_objectEEERS9_PKcT_
   fun:_ZNK5boost6python14indexing_suiteISt6vectorIN4dust8documentESaIS4_EENS0_6detail29final_vector_derived_policiesIS6_Lb0EEELb0ELb0ES4_mS4_E5visitINS0_6class_IS6_NS7_13not_specifiedESD_SD_EEEEvRT_
   fun:_ZN5boost6python18def_visitor_access5visitINS0_11def_visitorINS0_14indexing_suiteISt6vectorIN4dust8documentESaIS7_EENS0_6detail29final_vector_derived_policiesIS9_Lb0EEELb0ELb0ES7_mS7_EEEENS0_6class_IS9_NSA_13not_specifiedESG_SG_EEEEvRKT_RT0_
   fun:_ZNK5boost6python11def_visitorINS0_14indexing_suiteISt6vectorIN4dust8documentESaIS5_EENS0_6detail29final_vector_derived_policiesIS7_Lb0EEELb0ELb0ES5_mS5_EEE5visitINS0_6class_IS7_NS8_13not_specifiedESF_SF_EEEEvRT_
   fun:_ZN5boost6python6class_ISt6vectorIN4dust8documentESaIS4_EENS0_6detail13not_specifiedES8_S8_E3defINS0_14indexing_suiteIS6_NS7_29final_vector_derived_policiesIS6_Lb0EEELb0ELb0ES4_mS4_EEEERS9_RKNS0_11def_visitorIT_EE
   fun:_ZN11dust_server16init_module_DustEv
   fun:_ZN5boost6python21handle_exception_implENS_9function0IvEE
}
{
   <insert_a_suppression_name_here>
   Memcheck:Leak
   fun:_Znwm
   fun:_ZN5boost6python7objects15function_objectERKNS1_11py_functionERKSt4pairIPKNS0_6detail7keywordES9_E
   fun:_ZN5boost6python6detail17make_function_auxIPFbRSt6vectorIN4dust8documentESaIS5_EEP7_objectENS0_21default_call_policiesENS_3mpl7vector3IbS8_SA_EEN4mpl_4int_ILi0EEEEENS0_3api6objectET_RKT0_RKT1_RKSt4pairIPKNS1_7keywordESW_ET2_
   fun:_ZN5boost6python13make_functionIPFbRSt6vectorIN4dust8documentESaIS4_EEP7_objectENS0_21default_call_policiesENS0_6detail8keywordsILm0EEENS_3mpl7vector3IbS7_S9_EEEENS0_3api6objectET_RKT0_RKT1_RKT2_
   fun:_ZN5boost6python6class_ISt6vectorIN4dust8documentESaIS4_EENS0_6detail13not_specifiedES8_S8_E8def_implIS6_PFbRS6_P7_objectENS7_10def_helperIPKcS8_S8_S8_EEEEvPT_SI_T0_RKT1_z
   fun:_ZN5boost6python6class_ISt6vectorIN4dust8documentESaIS4_EENS0_6detail13not_specifiedES8_S8_E3defIPFbRS6_P7_objectEEERS9_PKcT_
   fun:_ZNK5boost6python14indexing_suiteISt6vectorIN4dust8documentESaIS4_EENS0_6detail29final_vector_derived_policiesIS6_Lb0EEELb0ELb0ES4_mS4_E5visitINS0_6class_IS6_NS7_13not_specifiedESD_SD_EEEEvRT_
   fun:_ZN5boost6python18def_visitor_access5visitINS0_11def_visitorINS0_14indexing_suiteISt6vectorIN4dust8documentESaIS7_EENS0_6detail29final_vector_derived_policiesIS9_Lb0EEELb0ELb0ES7_mS7_EEEENS0_6class_IS9_NSA_13not_specifiedESG_SG_EEEEvRKT_RT0_
   fun:_ZNK5boost6python11def_visitorINS0_14indexing_suiteISt6vectorIN4dust8documentESaIS5_EENS0_6detail29final_vector_derived_policiesIS7_Lb0EEELb0ELb0ES5_mS5_EEE5visitINS0_6class_IS7_NS8_13not_specifiedESF_SF_EEEEvRT_
   fun:_ZN5boost6python6class_ISt6vectorIN4dust8documentESaIS4_EENS0_6detail13not_specifiedES8_S8_E3defINS0_14indexing_suiteIS6_NS7_29final_vector_derived_policiesIS6_Lb0EEELb0ELb0ES4_mS4_EEEERS9_RKNS0_11def_visitorIT_EE
   fun:_ZN11dust_server16init_module_DustEv
   fun:_ZN5boost6python21handle_exception_implENS_9function0IvEE
}
{
   <insert_a_suppression_name_here>
   Memcheck:Leak
   fun:_Znwm
   fun:_ZN5boost6python7objects15function_objectERKNS1_11py_functionE
   fun:_ZN5boost6python6detail17make_function_auxINS0_7objects6detail8py_iter_ISt6vectorIN4dust8documentESaIS8_EEN9__gnu_cxx17__normal_iteratorIPS8_SA_EENS_3_bi16protected_bind_tINSF_6bind_tISE_PFSE_RSA_ENSF_5list1INS_3argILi1EEEEEEEEESQ_NS0_25return_internal_referenceILm1ENS0_21default_call_policiesEEEEESS_NS_3mpl7vector2INS3_14iterator_rangeIST_SE_EENS0_14back_referenceISI_EEEEEENS0_3api6objectET_RKT0_RKT1_
   fun:_ZN5boost6python6detail22make_function_dispatchINS0_7objects6detail8py_iter_ISt6vectorIN4dust8documentESaIS8_EEN9__gnu_cxx17__normal_iteratorIPS8_SA_EENS_3_bi16protected_bind_tINSF_6bind_tISE_PFSE_RSA_ENSF_5list1INS_3argILi1EEEEEEEEESQ_NS0_25return_internal_referenceILm1ENS0_21default_call_policiesEEEEESS_NS_3mpl7vector2INS3_14iterator_rangeIST_SE_EENS0_14back_referenceISI_EEEEEENS0_3api6objectET_RKT0_RKT1_N4mpl_5bool_ILb0EEE
   fun:_ZN5boost6python13make_functionINS0_7objects6detail8py_iter_ISt6vectorIN4dust8documentESaIS7_EEN9__gnu_cxx17__normal_iteratorIPS7_S9_EENS_3_bi16protected_bind_tINSE_6bind_tISD_PFSD_RS9_ENSE_5list1INS_3argILi1EEEEEEEEESP_NS0_25return_internal_referenceILm1ENS0_21default_call_policiesEEEEESR_NS_3mpl7vector2INS2_14iterator_rangeISS_SD_EENS0_14back_referenceISH_EEEEEENS0_3api6objectET_RKT0_RKT1_
   fun:_ZN5boost6python7objects6detail22make_iterator_functionISt6vectorIN4dust8documentESaIS6_EEN9__gnu_cxx17__normal_iteratorIPS6_S8_EENS0_25return_internal_referenceILm1ENS0_21default_call_policiesEEENS_3_bi16protected_bind_tINSG_6bind_tISC_PFSC_RS8_ENSG_5list1INS_3argILi1EEEEEEEEESR_EENS0_3api6objectERKT2_RKT3_RKT1_PFRKT0_vEPNS_4typeIT_EEi
   fun:_ZN5boost6python7objects22make_iterator_functionISt6vectorIN4dust8documentESaIS5_EENS0_25return_internal_referenceILm1ENS0_21default_call_policiesEEENS_3_bi16protected_bind_tINSB_6bind_tIN9__gnu_cxx17__normal_iteratorIPS5_S7_EEPFSH_RS7_ENSB_5list1INS_3argILi1EEEEEEEEESQ_EENS0_3api6objectERKT1_RKT2_RKT0_PNS_4typeIT_EE
   fun:_ZN5boost6python6detail13make_iteratorISt6vectorIN4dust8documentESaIS5_EEPFN9__gnu_cxx17__normal_iteratorIPS5_S7_EERS7_ESE_NS0_25return_internal_referenceILm1ENS0_21default_call_policiesEEEEENS0_3api6objectET0_T1_T2_PFRT_vE
   fun:_ZN5boost6python5rangeINS0_25return_internal_referenceILm1ENS0_21default_call_policiesEEEPFN9__gnu_cxx17__normal_iteratorIPN4dust8documentESt6vectorIS8_SaIS8_EEEERSC_ESG_EENS0_3api6objectET0_T1_PT_
   fun:_ZN5boost6python8iteratorISt6vectorIN4dust8documentESaIS4_EENS0_25return_internal_referenceILm1ENS0_21default_call_policiesEEEEC2Ev
   fun:_ZN5boost6python8iteratorISt6vectorIN4dust8documentESaIS4_EENS0_25return_internal_referenceILm1ENS0_21default_call_policiesEEEEC1Ev
   fun:_ZNK5boost6python14indexing_suiteISt6vectorIN4dust8documentESaIS4_EENS0_6detail29final_vector_derived_policiesIS6_Lb0EEELb0ELb0ES4_mS4_E5visitINS0_6class_IS6_NS7_13not_specifiedESD_SD_EEEEvRT_
}
{
   <insert_a_suppression_name_here>
   Memcheck:Leak
   fun:_Znwm
   fun:_ZN5boost6python7objects15function_objectERKNS1_11py_functionERKSt4pairIPKNS0_6detail7keywordES9_E
   fun:_ZN5boost6python6detail17make_function_auxIPFvRSt6vectorIN4dust8documentESaIS5_EENS0_3api6objectEENS0_21default_call_policiesENS_3mpl7vector3IvS8_SA_EEN4mpl_4int_ILi0EEEEESA_T_RKT0_RKT1_RKSt4pairIPKNS1_7keywordESU_ET2_
   fun:_ZN5boost6python13make_functionIPFvRSt6vectorIN4dust8documentESaIS4_EENS0_3api6objectEENS0_21default_call_policiesENS0_6detail8keywordsILm0EEENS_3mpl7vector3IvS7_S9_EEEES9_T_RKT0_RKT1_RKT2_
   fun:_ZN5boost6python6class_ISt6vectorIN4dust8documentESaIS4_EENS0_6detail13not_specifiedES8_S8_E8def_implIS6_PFvRS6_NS0_3api6objectEENS7_10def_helperIPKcS8_S8_S8_EEEEvPT_SI_T0_RKT1_z
   fun:_ZN5boost6python6class_ISt6vectorIN4dust8documentESaIS4_EENS0_6detail13not_specifiedES8_S8_E3defIPFvRS6_NS0_3api6objectEEEERS9_PKcT_
   fun:_ZN5boost6python21vector_indexing_suiteISt6vectorIN4dust8documentESaIS4_EELb0ENS0_6detail29final_vector_derived_policiesIS6_Lb0EEEE13extension_defINS0_6class_IS6_NS7_13not_specifiedESD_SD_EEEEvRT_
   fun:_ZNK5boost6python14indexing_suiteISt6vectorIN4dust8documentESaIS4_EENS0_6detail29final_vector_derived_policiesIS6_Lb0EEELb0ELb0ES4_mS4_E5visitINS0_6class_IS6_NS7_13not_specifiedESD_SD_EEEEvRT_
   fun:_ZN5boost6python18def_visitor_access5visitINS0_11def_visitorINS0_14indexing_suiteISt6vectorIN4dust8documentESaIS7_EENS0_6detail29final_vector_derived_policiesIS9_Lb0EEELb0ELb0ES7_mS7_EEEENS0_6class_IS9_NSA_13not_specifiedESG_SG_EEEEvRKT_RT0_
   fun:_ZNK5boost6python11def_visitorINS0_14indexing_suiteISt6vectorIN4dust8documentESaIS5_EENS0_6detail29final_vector_derived_policiesIS7_Lb0EEELb0ELb0ES5_mS5_EEE5visitINS0_6class_IS7_NS8_13not_specifiedESF_SF_EEEEvRT_
   fun:_ZN5boost6python6class_ISt6vectorIN4dust8documentESaIS4_EENS0_6detail13not_specifiedES8_S8_E3defINS0_14indexing_suiteIS6_NS7_29final_vector_derived_policiesIS6_Lb0EEELb0ELb0ES4_mS4_EEEERS9_RKNS0_11def_visitorIT_EE
   fun:_ZN11dust_server16init_module_DustEv
}
{
   <insert_a_suppression_name_here>
   Memcheck:Leak
   fun:malloc
   fun:PyObject_Malloc
   fun:_PyObject_GC_Malloc
   fun:_PyObject_GC_NewVar
   fun:PyTuple_New
   obj:/usr/lib64/libpython2.7.so.1.0
   obj:/usr/lib64/libpython2.7.so.1.0
   obj:/usr/lib64/libpython2.7.so.1.0
   fun:PyEval_CallFunction
   fun:_ZN5boost6python7objects10class_baseC1EPKcmPKNS0_9type_infoES4_
   fun:_ZN5boost6python6class_IN4dust8documentENS0_6detail13not_specifiedES5_S5_EC2INS0_4initISt8weak_ptrINS2_15key_value_storeEESsN4mpl_5void_ESD_SD_SD_SD_SD_SD_SD_SD_SD_SD_SD_SD_EEEEPKcRKNS0_9init_baseIT_EE
   fun:_ZN5boost6python6class_IN4dust8documentENS0_6detail13not_specifiedES5_S5_EC1INS0_4initISt8weak_ptrINS2_15key_value_storeEESsN4mpl_5void_ESD_SD_SD_SD_SD_SD_SD_SD_SD_SD_SD_SD_EEEEPKcRKNS0_9init_baseIT_EE
}
{
   <insert_a_suppression_name_here>
   Memcheck:Leak
   fun:malloc
   fun:PyObject_Malloc
   fun:_PyObject_GC_Malloc
   fun:_PyObject_GC_NewVar
   fun:PyTuple_New
   obj:/usr/lib64/libpython2.7.so.1.0
   obj:/usr/lib64/libpython2.7.so.1.0
   fun:PyObject_CallFunction
   fun:PyImport_Import
   fun:PyImport_ImportModule
   fun:_PyExc_Init
   fun:Py_InitializeEx
}
{
   <insert_a_suppression_name_here>
   Memcheck:Leak
   fun:malloc
   fun:PyObject_Malloc
   fun:_PyObject_GC_Malloc
   fun:_PyObject_GC_NewVar
   fun:PyTuple_New
   fun:PyTuple_Pack
   obj:/usr/lib64/libpython2.7.so.1.0
   fun:_PyWarnings_Init
   fun:Py_InitializeEx
   fun:_ZN11dust_server17PythonInitializerC2Ev
   fun:_ZN11dust_server17PythonInitializerC1Ev
   fun:__cxx_global_var_init25
}
{
   <insert_a_suppression_name_here>
   Memcheck:Leak
   fun:malloc
   fun:PyObject_Malloc
   fun:_PyObject_GC_Malloc
   fun:_PyObject_GC_NewVar
   fun:PyTuple_New
   obj:/usr/lib64/libpython2.7.so.1.0
   obj:/usr/lib64/libpython2.7.so.1.0
   fun:PyObject_CallFunction
   fun:PyImport_Import
   fun:PyImport_ImportModule
   obj:/usr/lib64/libpython2.7.so.1.0
   fun:Py_InitializeEx
}
{
   <insert_a_suppression_name_here>
   Memcheck:Leak
   fun:malloc
   fun:PyObject_Malloc
   fun:_PyObject_GC_Malloc
   fun:_PyObject_GC_NewVar
   fun:PyTuple_New
   obj:/usr/lib64/libpython2.7.so.1.0
   obj:/usr/lib64/libpython2.7.so.1.0
   obj:/usr/lib64/libpython2.7.so.1.0
   obj:/usr/lib64/libpython2.7.so.1.0
   obj:/usr/lib64/libpython2.7.so.1.0
   fun:PyMarshal_ReadObjectFromString
   fun:PyMarshal_ReadLastObjectFromFile
}
{
   <insert_a_suppression_name_here>
   Memcheck:Leak
   fun:malloc
   fun:PyObject_Malloc
   fun:_PyObject_GC_Malloc
   fun:_PyObject_GC_NewVar
   fun:PyTuple_New
   obj:/usr/lib64/libpython2.7.so.1.0
   fun:PyObject_CallMethod
   obj:/usr/lib64/libpython2.7.so.1.0
   obj:/usr/lib64/libpython2.7.so.1.0
   obj:/usr/lib64/libpython2.7.so.1.0
   fun:PyImport_ImportModuleLevel
   obj:/usr/lib64/libpython2.7.so.1.0
}
{
   <insert_a_suppression_name_here>
   Memcheck:Leak
   fun:malloc
   fun:PyObject_Malloc
   fun:_PyObject_GC_Malloc
   fun:_PyObject_GC_NewVar
   fun:PyTuple_New
   fun:PyEval_EvalFrameEx
   fun:PyEval_EvalCodeEx
   obj:/usr/lib64/libpython2.7.so.1.0
   fun:PyObject_Call
   obj:/usr/lib64/libpython2.7.so.1.0
   obj:/usr/lib64/libpython2.7.so.1.0
   fun:PyObject_Call
}
{
   <insert_a_suppression_name_here>
   Memcheck:Leak
   fun:malloc
   fun:PyObject_Malloc
   fun:_PyObject_GC_Malloc
   fun:_PyObject_GC_NewVar
   fun:PyTuple_New
   fun:PyEval_EvalFrameEx
   fun:PyEval_EvalCodeEx
   fun:PyEval_EvalCode
   fun:PyImport_ExecCodeModuleEx
   obj:/usr/lib64/libpython2.7.so.1.0
   obj:/usr/lib64/libpython2.7.so.1.0
   obj:/usr/lib64/libpython2.7.so.1.0
}
{
   <insert_a_suppression_name_here>
   Memcheck:Leak
   fun:malloc
   fun:PyObject_Malloc
   fun:_PyObject_GC_Malloc
   fun:_PyObject_GC_NewVar
   fun:PyTuple_New
   obj:/usr/lib64/libpython2.7.so.1.0
   obj:/usr/lib64/libpython2.7.so.1.0
   fun:PyMarshal_ReadObjectFromString
   fun:PyMarshal_ReadLastObjectFromFile
   obj:/usr/lib64/libpython2.7.so.1.0
   obj:/usr/lib64/libpython2.7.so.1.0
   obj:/usr/lib64/libpython2.7.so.1.0
}
{
   <insert_a_suppression_name_here>
   Memcheck:Leak
   fun:malloc
   fun:PyObject_Malloc
   fun:_PyObject_GC_Malloc
   fun:_PyObject_GC_NewVar
   fun:PyTuple_New
   fun:PyTuple_Pack
   obj:/usr/lib64/libpython2.7.so.1.0
   fun:PyEval_EvalFrameEx
   fun:PyEval_EvalCodeEx
   obj:/usr/lib64/libpython2.7.so.1.0
   fun:PyObject_Call
   obj:/usr/lib64/libpython2.7.so.1.0
}
{
   <insert_a_suppression_name_here>
   Memcheck:Leak
   fun:malloc
   fun:PyObject_Malloc
   fun:_PyObject_GC_Malloc
   fun:_PyObject_GC_NewVar
   fun:PyTuple_New
   obj:/usr/lib64/libpython2.7.so.1.0
   fun:PyObject_CallFunctionObjArgs
   fun:PyEval_EvalFrameEx
   fun:PyEval_EvalCodeEx
   fun:PyEval_EvalCode
   fun:PyImport_ExecCodeModuleEx
   obj:/usr/lib64/libpython2.7.so.1.0
}
{
   <insert_a_suppression_name_here>
   Memcheck:Leak
   fun:malloc
   fun:PyObject_Malloc
   fun:_PyObject_GC_Malloc
   fun:_PyObject_GC_NewVar
   fun:PyTuple_New
   obj:/usr/lib64/libpython2.7.so.1.0
   obj:/usr/lib64/libpython2.7.so.1.0
   obj:/usr/lib64/libpython2.7.so.1.0
   obj:/usr/lib64/libpython2.7.so.1.0
   fun:PyMarshal_ReadObjectFromString
   fun:PyMarshal_ReadLastObjectFromFile
   obj:/usr/lib64/libpython2.7.so.1.0
}
{
   <insert_a_suppression_name_here>
   Memcheck:Leak
   fun:malloc
   fun:PyObject_Malloc
   fun:PyString_FromStringAndSize
   obj:/usr/lib64/libpython2.7.so.1.0
   obj:/usr/lib64/libpython2.7.so.1.0
   obj:/usr/lib64/libpython2.7.so.1.0
   obj:/usr/lib64/libpython2.7.so.1.0
   obj:/usr/lib64/libpython2.7.so.1.0
   obj:/usr/lib64/libpython2.7.so.1.0
   fun:PyMarshal_ReadObjectFromString
   fun:PyMarshal_ReadLastObjectFromFile
   obj:/usr/lib64/libpython2.7.so.1.0
}
{
   <insert_a_suppression_name_here>
   Memcheck:Leak
   fun:malloc
   fun:PyObject_Malloc
   fun:_PyObject_GC_Malloc
   fun:_PyObject_GC_New
   fun:PyDict_New
   fun:PyString_InternInPlace
   fun:PyString_InternFromString
   obj:/usr/lib64/libpython2.7.so.1.0
   fun:PyType_Ready
   fun:PyType_Ready
   fun:_Py_ReadyTypes
   fun:Py_InitializeEx
}
{
   <insert_a_suppression_name_here>
   Memcheck:Leak
   fun:malloc
   fun:PyObject_Malloc
   fun:_PyObject_GC_Malloc
   fun:_PyObject_GC_New
   fun:PyDict_New
   fun:PyErr_NewException
   fun:initzipimport
   obj:/usr/lib64/libpython2.7.so.1.0
   obj:/usr/lib64/libpython2.7.so.1.0
   obj:/usr/lib64/libpython2.7.so.1.0
   obj:/usr/lib64/libpython2.7.so.1.0
   fun:PyImport_ImportModuleLevel
}
{
   <insert_a_suppression_name_here>
   Memcheck:Leak
   fun:malloc
   fun:PyObject_Malloc
   fun:_PyObject_GC_Malloc
   fun:_PyObject_GC_New
   fun:PyDict_New
   fun:_PyWarnings_Init
   fun:Py_InitializeEx
   fun:_ZN11dust_server17PythonInitializerC2Ev
   fun:_ZN11dust_server17PythonInitializerC1Ev
   fun:__cxx_global_var_init25
   fun:_GLOBAL__I_a
   fun:__libc_csu_init
}
{
   <insert_a_suppression_name_here>
   Memcheck:Leak
   fun:malloc
   fun:PyObject_Malloc
   fun:_PyObject_GC_Malloc
   fun:_PyObject_GC_New
   fun:PyDict_New
   fun:initposix
   obj:/usr/lib64/libpython2.7.so.1.0
   obj:/usr/lib64/libpython2.7.so.1.0
   obj:/usr/lib64/libpython2.7.so.1.0
   obj:/usr/lib64/libpython2.7.so.1.0
   fun:PyImport_ImportModuleLevel
   obj:/usr/lib64/libpython2.7.so.1.0
}
{
   <insert_a_suppression_name_here>
   Memcheck:Leak
   fun:malloc
   fun:PyObject_Malloc
   fun:_PyObject_GC_Malloc
   fun:_PyObject_GC_NewVar
   fun:PyTuple_New
   obj:/usr/lib64/libpython2.7.so.1.0
   obj:/usr/lib64/libpython2.7.so.1.0
   obj:/usr/lib64/libpython2.7.so.1.0
   obj:/usr/lib64/libpython2.7.so.1.0
   obj:/usr/lib64/libpython2.7.so.1.0
   obj:/usr/lib64/libpython2.7.so.1.0
   fun:PyMarshal_ReadObjectFromString
}
{
   <insert_a_suppression_name_here>
   Memcheck:Leak
   fun:malloc
   fun:PyObject_Malloc
   fun:_PyObject_GC_Malloc
   fun:_PyObject_GC_NewVar
   fun:PyFrame_New
   fun:PyEval_EvalCodeEx
   obj:/usr/lib64/libpython2.7.so.1.0
   fun:PyObject_Call
   obj:/usr/lib64/libpython2.7.so.1.0
   fun:PyObject_Call
   fun:PyObject_CallFunctionObjArgs
   fun:PyEval_EvalFrameEx
}
{
   <insert_a_suppression_name_here>
   Memcheck:Leak
   fun:malloc
   fun:PyObject_Malloc
   fun:_PyObject_GC_Malloc
   fun:_PyObject_GC_NewVar
   fun:PyFrame_New
   fun:PyEval_EvalCodeEx
   obj:/usr/lib64/libpython2.7.so.1.0
   fun:PyObject_Call
   fun:PyObject_CallFunctionObjArgs
   obj:/usr/lib64/libpython2.7.so.1.0
   fun:PyObject_ClearWeakRefs
   obj:/usr/lib64/libpython2.7.so.1.0
}
{
   <insert_a_suppression_name_here>
   Memcheck:Leak
   fun:malloc
   fun:PyObject_Malloc
   fun:_PyObject_GC_Malloc
   fun:_PyObject_GC_NewVar
   fun:PyFrame_New
   fun:PyEval_EvalFrameEx
   fun:PyEval_EvalCodeEx
   fun:PyEval_EvalCode
   fun:PyImport_ExecCodeModuleEx
   obj:/usr/lib64/libpython2.7.so.1.0
   obj:/usr/lib64/libpython2.7.so.1.0
   obj:/usr/lib64/libpython2.7.so.1.0
}
{
   <insert_a_suppression_name_here>
   Memcheck:Leak
   fun:malloc
   fun:PyObject_Malloc
   fun:_PyObject_GC_Malloc
   fun:_PyObject_GC_NewVar
   fun:PyFrame_New
   fun:PyEval_EvalCodeEx
   fun:PyEval_EvalFrameEx
   fun:PyEval_EvalCodeEx
   obj:/usr/lib64/libpython2.7.so.1.0
   fun:PyObject_Call
   obj:/usr/lib64/libpython2.7.so.1.0
   obj:/usr/lib64/libpython2.7.so.1.0
}
{
   <insert_a_suppression_name_here>
   Memcheck:Leak
   fun:malloc
   fun:PyObject_Malloc
   fun:_PyObject_GC_Malloc
   fun:_PyObject_GC_NewVar
   fun:PyFrame_New
   fun:PyEval_EvalCodeEx
   obj:/usr/lib64/libpython2.7.so.1.0
   fun:PyObject_Call
   obj:/usr/lib64/libpython2.7.so.1.0
   fun:PyObject_Call
   obj:/usr/lib64/libpython2.7.so.1.0
   fun:PyEval_EvalFrameEx
}
{
   <insert_a_suppression_name_here>
   Memcheck:Leak
   fun:malloc
   fun:PyObject_Malloc
   fun:_PyObject_GC_Malloc
   fun:_PyObject_GC_NewVar
   fun:PyFrame_New
   fun:PyEval_EvalCodeEx
   obj:/usr/lib64/libpython2.7.so.1.0
   fun:PyObject_Call
   obj:/usr/lib64/libpython2.7.so.1.0
   fun:PyObject_Call
   fun:PyObject_CallFunctionObjArgs
   fun:PyObject_IsSubclass
}
{
   <insert_a_suppression_name_here>
   Memcheck:Leak
   fun:malloc
   fun:PyObject_Malloc
   fun:_PyObject_GC_Malloc
   fun:_PyObject_GC_NewVar
   fun:PyFrame_New
   fun:PyEval_EvalCodeEx
   obj:/usr/lib64/libpython2.7.so.1.0
   fun:PyObject_Call
   obj:/usr/lib64/libpython2.7.so.1.0
   fun:PyObject_Call
   obj:/usr/lib64/libpython2.7.so.1.0
   fun:PyObject_GetIter
}
{
   <insert_a_suppression_name_here>
   Memcheck:Leak
   fun:malloc
   fun:PyObject_Malloc
   fun:_PyObject_GC_Malloc
   fun:_PyObject_GC_NewVar
   fun:PyFrame_New
   fun:PyEval_EvalCodeEx
   obj:/usr/lib64/libpython2.7.so.1.0
   fun:PyObject_Call
   obj:/usr/lib64/libpython2.7.so.1.0
   obj:/usr/lib64/libpython2.7.so.1.0
   fun:PyObject_Call
   fun:PyObject_CallFunctionObjArgs
}
{
   <insert_a_suppression_name_here>
   Memcheck:Leak
   fun:malloc
   fun:PyObject_Malloc
   fun:_PyObject_GC_Malloc
   fun:_PyObject_GC_NewVar
   fun:PyFrame_New
   fun:PyEval_EvalCodeEx
   obj:/usr/lib64/libpython2.7.so.1.0
   fun:PyObject_Call
   obj:/usr/lib64/libpython2.7.so.1.0
   obj:/usr/lib64/libpython2.7.so.1.0
   fun:PyObject_Call
   fun:PyEval_EvalFrameEx
}
{
   <insert_a_suppression_name_here>
   Memcheck:Leak
   fun:malloc
   fun:PyObject_Malloc
   fun:_PyObject_GC_Malloc
   fun:_PyObject_GC_New
   fun:PyDict_New
   fun:PyDict_Copy
   obj:/usr/lib64/libpython2.7.so.1.0
   obj:/usr/lib64/libpython2.7.so.1.0
   fun:PyObject_Call
   fun:PyEval_CallObjectWithKeywords
   fun:PyEval_CallFunction
   fun:_ZN5boost6python7objects10class_baseC1EPKcmPKNS0_9type_infoES4_
}
{
   <insert_a_suppression_name_here>
   Memcheck:Leak
   fun:malloc
   fun:PyObject_Malloc
   fun:PyString_FromStringAndSize
   obj:/usr/lib64/libpython2.7.so.1.0
   obj:/usr/lib64/libpython2.7.so.1.0
   obj:/usr/lib64/libpython2.7.so.1.0
   obj:/usr/lib64/libpython2.7.so.1.0
   obj:/usr/lib64/libpython2.7.so.1.0
   obj:/usr/lib64/libpython2.7.so.1.0
   obj:/usr/lib64/libpython2.7.so.1.0
   obj:/usr/lib64/libpython2.7.so.1.0
   fun:PyMarshal_ReadObjectFromString
}
{
   <insert_a_suppression_name_here>
   Memcheck:Leak
   fun:malloc
   obj:/usr/lib64/libpython2.7.so.1.0
   fun:_PyObject_GenericSetAttrWithDict
   obj:/usr/lib64/libpython2.7.so.1.0
   fun:PyObject_SetAttr
   fun:_ZN5boost6python7objects8function16add_to_namespaceERKNS0_3api6objectEPKcS6_S8_
   fun:_ZN5boost6python6class_IN4dust8documentENS0_6detail13not_specifiedES5_S5_E8def_implIS3_MS3_KFS3_RKSsENS4_10def_helperIPKcS5_S5_S5_EEEEvPT_SE_T0_RKT1_z
   fun:_ZN5boost6python6class_IN4dust8documentENS0_6detail13not_specifiedES5_S5_E3defIMS3_KFS3_RKSsEEERS6_PKcT_
   fun:_ZN11dust_server16init_module_DustEv
   fun:_ZN5boost6python21handle_exception_implENS_9function0IvEE
   fun:_ZN5boost6python6detail11init_moduleEPKcPFvvE
   fun:initDust
}
{
   <insert_a_suppression_name_here>
   Memcheck:Leak
   fun:malloc
   obj:/usr/lib64/libpython2.7.so.1.0
   fun:_PyObject_GenericSetAttrWithDict
   obj:/usr/lib64/libpython2.7.so.1.0
   fun:PyObject_SetAttr
   fun:_ZN5boost6python7objects8function16add_to_namespaceERKNS0_3api6objectEPKcS6_S8_
   fun:_ZN5boost6python6class_ISt6vectorIN4dust8documentESaIS4_EENS0_6detail13not_specifiedES8_S8_E8def_implIS6_PFmRS6_ENS7_10def_helperIPKcS8_S8_S8_EEEEvPT_SG_T0_RKT1_z
   fun:_ZN5boost6python6class_ISt6vectorIN4dust8documentESaIS4_EENS0_6detail13not_specifiedES8_S8_E3defIPFmRS6_EEERS9_PKcT_
   fun:_ZNK5boost6python14indexing_suiteISt6vectorIN4dust8documentESaIS4_EENS0_6detail29final_vector_derived_policiesIS6_Lb0EEELb0ELb0ES4_mS4_E5visitINS0_6class_IS6_NS7_13not_specifiedESD_SD_EEEEvRT_
   fun:_ZN5boost6python18def_visitor_access5visitINS0_11def_visitorINS0_14indexing_suiteISt6vectorIN4dust8documentESaIS7_EENS0_6detail29final_vector_derived_policiesIS9_Lb0EEELb0ELb0ES7_mS7_EEEENS0_6class_IS9_NSA_13not_specifiedESG_SG_EEEEvRKT_RT0_
   fun:_ZNK5boost6python11def_visitorINS0_14indexing_suiteISt6vectorIN4dust8documentESaIS5_EENS0_6detail29final_vector_derived_policiesIS7_Lb0EEELb0ELb0ES5_mS5_EEE5visitINS0_6class_IS7_NS8_13not_specifiedESF_SF_EEEEvRT_
   fun:_ZN5boost6python6class_ISt6vectorIN4dust8documentESaIS4_EENS0_6detail13not_specifiedES8_S8_E3defINS0_14indexing_suiteIS6_NS7_29final_vector_derived_policiesIS6_Lb0EEELb0ELb0ES4_mS4_EEEERS9_RKNS0_11def_visitorIT_EE
}
{
   <insert_a_suppression_name_here>
   Memcheck:Leak
   fun:malloc
   fun:PyObject_Malloc
   fun:PyString_FromStringAndSize
   obj:/usr/lib64/libpython2.7.so.1.0
   obj:/usr/lib64/libpython2.7.so.1.0
   obj:/usr/lib64/libpython2.7.so.1.0
   obj:/usr/lib64/libpython2.7.so.1.0
   obj:/usr/lib64/libpython2.7.so.1.0
   obj:/usr/lib64/libpython2.7.so.1.0
   obj:/usr/lib64/libpython2.7.so.1.0
   fun:PyMarshal_ReadObjectFromString
   fun:PyMarshal_ReadLastObjectFromFile
}
{
   <insert_a_suppression_name_here>
   Memcheck:Leak
   fun:malloc
   fun:PyObject_Malloc
   fun:_PyObject_GC_Malloc
   fun:_PyObject_GC_NewVar
   fun:PyTuple_New
   fun:PyEval_EvalFrameEx
   fun:PyEval_EvalCodeEx
   fun:PyEval_EvalFrameEx
   fun:PyEval_EvalCodeEx
   fun:PyEval_EvalCode
   fun:PyImport_ExecCodeModuleEx
   obj:/usr/lib64/libpython2.7.so.1.0
}
{
   <insert_a_suppression_name_here>
   Memcheck:Leak
   fun:malloc
   fun:PyObject_Malloc
   fun:_PyObject_GC_Malloc
   fun:_PyObject_GC_NewVar
   fun:PyFrame_New
   fun:PyEval_EvalCodeEx
   obj:/usr/lib64/libpython2.7.so.1.0
   fun:PyObject_Call
   obj:/usr/lib64/libpython2.7.so.1.0
   fun:PyObject_Call
   obj:/usr/lib64/libpython2.7.so.1.0
   obj:/usr/lib64/libpython2.7.so.1.0
}
{
   <insert_a_suppression_name_here>
   Memcheck:Leak
   fun:malloc
   fun:PyObject_Malloc
   fun:_PyObject_GC_Malloc
   fun:_PyObject_GC_NewVar
   fun:PyFrame_New
   fun:PyEval_EvalFrameEx
   fun:PyEval_EvalCodeEx
   obj:/usr/lib64/libpython2.7.so.1.0
   fun:PyObject_Call
   obj:/usr/lib64/libpython2.7.so.1.0
   fun:PyObject_Call
   fun:PyObject_CallFunctionObjArgs
}
{
   <insert_a_suppression_name_here>
   Memcheck:Leak
   fun:malloc
   fun:PyObject_Malloc
   fun:PyCode_New
   obj:/usr/lib64/libpython2.7.so.1.0
   obj:/usr/lib64/libpython2.7.so.1.0
   obj:/usr/lib64/libpython2.7.so.1.0
   obj:/usr/lib64/libpython2.7.so.1.0
   obj:/usr/lib64/libpython2.7.so.1.0
   obj:/usr/lib64/libpython2.7.so.1.0
   obj:/usr/lib64/libpython2.7.so.1.0
   fun:PyMarshal_ReadObjectFromString
   fun:PyMarshal_ReadLastObjectFromFile
}
{
   <insert_a_suppression_name_here>
   Memcheck:Leak
   fun:malloc
   fun:PyObject_Malloc
   fun:_PyObject_GC_Malloc
   fun:_PyObject_GC_NewVar
   fun:PyTuple_New
   obj:/usr/lib64/libpython2.7.so.1.0
   fun:PyEval_EvalFrameEx
   fun:PyEval_EvalFrameEx
   fun:PyEval_EvalFrameEx
   fun:PyEval_EvalCodeEx
   fun:PyEval_EvalFrameEx
   fun:PyEval_EvalCodeEx
}
{
   <insert_a_suppression_name_here>
   Memcheck:Leak
   fun:malloc
   fun:PyObject_Malloc
   fun:_PyObject_GC_Malloc
   fun:_PyObject_GC_New
   fun:PyDict_New
   fun:_PyObject_GenericSetAttrWithDict
   fun:PyObject_SetAttr
   fun:PyEval_EvalFrameEx
   fun:PyEval_EvalFrameEx
   fun:PyEval_EvalCodeEx
   fun:PyEval_EvalFrameEx
   fun:PyEval_EvalCodeEx
}
{
   <insert_a_suppression_name_here>
   Memcheck:Leak
   fun:malloc
   obj:/usr/lib64/libpython2.7.so.1.0
   fun:PyString_InternInPlace
   obj:/usr/lib64/libpython2.7.so.1.0
   obj:/usr/lib64/libpython2.7.so.1.0
   obj:/usr/lib64/libpython2.7.so.1.0
   fun:PyMarshal_ReadObjectFromString
   fun:PyMarshal_ReadLastObjectFromFile
   obj:/usr/lib64/libpython2.7.so.1.0
   obj:/usr/lib64/libpython2.7.so.1.0
   obj:/usr/lib64/libpython2.7.so.1.0
   obj:/usr/lib64/libpython2.7.so.1.0
}
{
   <insert_a_suppression_name_here>
   Memcheck:Leak
   fun:malloc
   fun:strdup
   fun:Py_InitializeEx
   fun:_ZN11dust_server17PythonInitializerC2Ev
   fun:_ZN11dust_server17PythonInitializerC1Ev
   fun:__cxx_global_var_init25
   fun:_GLOBAL__I_a
   fun:__libc_csu_init
   fun:(below main)
}
{
   <insert_a_suppression_name_here>
   Memcheck:Leak
   fun:malloc
   fun:PyList_New
   obj:/usr/lib64/libpython2.7.so.1.0
   obj:/usr/lib64/libpython2.7.so.1.0
   fun:Py_BuildValue
   fun:PyImport_Import
   fun:PyImport_ImportModule
   fun:_PyExc_Init
   fun:Py_InitializeEx
   fun:_ZN11dust_server17PythonInitializerC2Ev
   fun:_ZN11dust_server17PythonInitializerC1Ev
   fun:__cxx_global_var_init25
}
{
   <insert_a_suppression_name_here>
   Memcheck:Leak
   fun:malloc
   fun:PyObject_Malloc
   fun:PyType_GenericAlloc
   obj:/usr/lib64/libpython2.7.so.1.0
   fun:PyObject_Call
   fun:PyEval_EvalFrameEx
   fun:PyEval_EvalCodeEx
   fun:PyEval_EvalFrameEx
   fun:PyEval_EvalCodeEx
   fun:PyEval_EvalCode
   fun:PyImport_ExecCodeModuleEx
   obj:/usr/lib64/libpython2.7.so.1.0
}
{
   <insert_a_suppression_name_here>
   Memcheck:Leak
   fun:_Znwm
   fun:_ZN5boost6python29make_instance_reduce_functionEv
   fun:_ZN5boost6python7objects10class_baseC1EPKcmPKNS0_9type_infoES4_
   fun:_ZN5boost6python6class_IN4dust8documentENS0_6detail13not_specifiedES5_S5_EC2INS0_4initISt8weak_ptrINS2_15key_value_storeEESsN4mpl_5void_ESD_SD_SD_SD_SD_SD_SD_SD_SD_SD_SD_SD_EEEEPKcRKNS0_9init_baseIT_EE
   fun:_ZN5boost6python6class_IN4dust8documentENS0_6detail13not_specifiedES5_S5_EC1INS0_4initISt8weak_ptrINS2_15key_value_storeEESsN4mpl_5void_ESD_SD_SD_SD_SD_SD_SD_SD_SD_SD_SD_SD_EEEEPKcRKNS0_9init_baseIT_EE
   fun:_ZN11dust_server16init_module_DustEv
   fun:_ZN5boost6python21handle_exception_implENS_9function0IvEE
   fun:_ZN5boost6python6detail11init_moduleEPKcPFvvE
   fun:initDust
   fun:_ZN11dust_server17PythonInitializerC2Ev
   fun:_ZN11dust_server17PythonInitializerC1Ev
   fun:__cxx_global_var_init25
}
{
   <insert_a_suppression_name_here>
   Memcheck:Leak
   fun:malloc
   fun:PyThread_allocate_lock
   fun:PyInterpreterState_New
   fun:Py_InitializeEx
   fun:_ZN11dust_server17PythonInitializerC2Ev
   fun:_ZN11dust_server17PythonInitializerC1Ev
   fun:__cxx_global_var_init25
   fun:_GLOBAL__I_a
   fun:__libc_csu_init
   fun:(below main)
}
{
   <insert_a_suppression_name_here>
   Memcheck:Leak
   fun:malloc
   fun:realloc
   obj:/usr/lib64/libpython2.7.so.1.0
   obj:/usr/lib64/libpython2.7.so.1.0
   obj:/usr/lib64/libpython2.7.so.1.0
   fun:PyType_Ready
   fun:_Py_ReadyTypes
   fun:Py_InitializeEx
   fun:_ZN11dust_server17PythonInitializerC2Ev
   fun:_ZN11dust_server17PythonInitializerC1Ev
   fun:__cxx_global_var_init25
   fun:_GLOBAL__I_a
}
{
   <insert_a_suppression_name_here>
   Memcheck:Leak
   fun:malloc
   fun:realloc
   obj:/usr/lib64/libpython2.7.so.1.0
   obj:/usr/lib64/libpython2.7.so.1.0
   obj:/usr/lib64/libpython2.7.so.1.0
   fun:PyType_Ready
   fun:_PyExc_Init
   fun:Py_InitializeEx
   fun:_ZN11dust_server17PythonInitializerC2Ev
   fun:_ZN11dust_server17PythonInitializerC1Ev
   fun:__cxx_global_var_init25
   fun:_GLOBAL__I_a
}
{
   <insert_a_suppression_name_here>
   Memcheck:Leak
   fun:malloc
   fun:PyThread_allocate_lock
   fun:_PyImport_AcquireLock
   fun:PyImport_ImportModuleLevel
   fun:PyImport_Import
   fun:PyImport_ImportModule
   fun:_PyExc_Init
   fun:Py_InitializeEx
   fun:_ZN11dust_server17PythonInitializerC2Ev
   fun:_ZN11dust_server17PythonInitializerC1Ev
   fun:__cxx_global_var_init25
   fun:_GLOBAL__I_a
}
{
   <insert_a_suppression_name_here>
   Memcheck:Leak
   fun:malloc
   fun:PyList_New
   fun:_PyWarnings_Init
   fun:Py_InitializeEx
   fun:_ZN11dust_server17PythonInitializerC2Ev
   fun:_ZN11dust_server17PythonInitializerC1Ev
   fun:__cxx_global_var_init25
   fun:_GLOBAL__I_a
   fun:__libc_csu_init
   fun:(below main)
}
{
   <insert_a_suppression_name_here>
   Memcheck:Leak
   fun:malloc
   fun:PyThread_allocate_lock
   fun:PyThread_create_key
   fun:_PyGILState_Init
   fun:Py_InitializeEx
   fun:_ZN11dust_server17PythonInitializerC2Ev
   fun:_ZN11dust_server17PythonInitializerC1Ev
   fun:__cxx_global_var_init25
   fun:_GLOBAL__I_a
   fun:__libc_csu_init
   fun:(below main)
}
{
   <insert_a_suppression_name_here>
   Memcheck:Leak
   fun:malloc
   fun:PyThread_allocate_lock
   fun:Py_MakePendingCalls
   fun:PyEval_EvalFrameEx
   fun:PyEval_EvalCodeEx
   fun:PyEval_EvalCode
   fun:PyImport_ExecCodeModuleEx
   obj:/usr/lib64/libpython2.7.so.1.0
   obj:/usr/lib64/libpython2.7.so.1.0
   obj:/usr/lib64/libpython2.7.so.1.0
   fun:PyImport_ImportModuleLevel
   obj:/usr/lib64/libpython2.7.so.1.0
}
{
   <insert_a_suppression_name_here>
   Memcheck:Leak
   fun:malloc
   fun:realloc
   obj:/usr/lib64/libpython2.7.so.1.0
   obj:/usr/lib64/libpython2.7.so.1.0
   obj:/usr/lib64/libpython2.7.so.1.0
   fun:PyType_Ready
   obj:/usr/lib64/libpython2.7.so.1.0
   obj:/usr/lib64/libpython2.7.so.1.0
   fun:PyObject_Call
   fun:PyEval_CallObjectWithKeywords
   fun:PyEval_CallFunction
   fun:_ZN5boost6python7objects10class_baseC1EPKcmPKNS0_9type_infoES4_
}
{
   <insert_a_suppression_name_here>
   Memcheck:Leak
   fun:malloc
   fun:PyObject_Malloc
   fun:PyString_FromStringAndSize
   obj:/usr/lib64/libpython2.7.so.1.0
   obj:/usr/lib64/libpython2.7.so.1.0
   obj:/usr/lib64/libpython2.7.so.1.0
   obj:/usr/lib64/libpython2.7.so.1.0
   fun:Py_BuildValue
   fun:_PySys_Init
   fun:Py_InitializeEx
   fun:_ZN11dust_server17PythonInitializerC2Ev
   fun:_ZN11dust_server17PythonInitializerC1Ev
}
{
   <insert_a_suppression_name_here>
   Memcheck:Leak
   fun:malloc
   fun:PyObject_Malloc
   fun:PyString_FromString
   fun:PyDict_SetItemString
   fun:_PyBuiltin_Init
   fun:Py_InitializeEx
   fun:_ZN11dust_server17PythonInitializerC2Ev
   fun:_ZN11dust_server17PythonInitializerC1Ev
   fun:__cxx_global_var_init25
   fun:_GLOBAL__I_a
   fun:__libc_csu_init
   fun:(below main)
}
{
   <insert_a_suppression_name_here>
   Memcheck:Leak
   fun:malloc
   fun:PyObject_Malloc
   fun:PyString_FromString
   fun:PyDict_SetItemString
   fun:PyImport_AddModule
   fun:Py_InitModule4_64
   fun:_PySys_Init
   fun:Py_InitializeEx
   fun:_ZN11dust_server17PythonInitializerC2Ev
   fun:_ZN11dust_server17PythonInitializerC1Ev
   fun:__cxx_global_var_init25
   fun:_GLOBAL__I_a
}
{
   <insert_a_suppression_name_here>
   Memcheck:Leak
   fun:malloc
   fun:PyObject_Malloc
   fun:PyString_FromString
   fun:PyString_InternFromString
   obj:/usr/lib64/libpython2.7.so.1.0
   fun:PyDescr_NewMethod
   fun:PyType_Ready
   fun:_PyUnicodeUCS4_Init
   fun:Py_InitializeEx
   fun:_ZN11dust_server17PythonInitializerC2Ev
   fun:_ZN11dust_server17PythonInitializerC1Ev
   fun:__cxx_global_var_init25
}
{
   <insert_a_suppression_name_here>
   Memcheck:Leak
   fun:malloc
   fun:PyObject_Malloc
   fun:PyString_FromString
   fun:PyString_InternFromString
   obj:/usr/lib64/libpython2.7.so.1.0
   fun:PyDescr_NewMember
   fun:PyType_Ready
   fun:_PyExc_Init
   fun:Py_InitializeEx
   fun:_ZN11dust_server17PythonInitializerC2Ev
   fun:_ZN11dust_server17PythonInitializerC1Ev
   fun:__cxx_global_var_init25
}
{
   <insert_a_suppression_name_here>
   Memcheck:Leak
   fun:malloc
   fun:PyObject_Malloc
   fun:PyString_FromStringAndSize
   fun:PyErr_NewException
   fun:initsignal
   fun:PyOS_InitInterrupts
   fun:Py_InitializeEx
   fun:_ZN11dust_server17PythonInitializerC2Ev
   fun:_ZN11dust_server17PythonInitializerC1Ev
   fun:__cxx_global_var_init25
   fun:_GLOBAL__I_a
   fun:__libc_csu_init
}
{
   <insert_a_suppression_name_here>
   Memcheck:Leak
   fun:malloc
   fun:PyObject_Malloc
   fun:PyString_FromString
   fun:PyString_InternFromString
   obj:/usr/lib64/libpython2.7.so.1.0
   fun:_PyWarnings_Init
   fun:Py_InitializeEx
   fun:_ZN11dust_server17PythonInitializerC2Ev
   fun:_ZN11dust_server17PythonInitializerC1Ev
   fun:__cxx_global_var_init25
   fun:_GLOBAL__I_a
   fun:__libc_csu_init
}
{
   <insert_a_suppression_name_here>
   Memcheck:Leak
   fun:malloc
   fun:PyObject_Malloc
   fun:PyString_FromString
   fun:PyModule_New
   fun:PyImport_AddModule
   fun:PyImport_ExecCodeModuleEx
   obj:/usr/lib64/libpython2.7.so.1.0
   obj:/usr/lib64/libpython2.7.so.1.0
   obj:/usr/lib64/libpython2.7.so.1.0
   fun:PyImport_ImportModuleLevel
   obj:/usr/lib64/libpython2.7.so.1.0
   fun:PyObject_Call
}
{
   <insert_a_suppression_name_here>
   Memcheck:Leak
   fun:malloc
   fun:PyObject_Malloc
   fun:PyString_FromString
   fun:PyDict_SetItemString
   fun:PyType_Ready
   fun:PyType_Ready
   fun:_Py_ReadyTypes
   fun:Py_InitializeEx
   fun:_ZN11dust_server17PythonInitializerC2Ev
   fun:_ZN11dust_server17PythonInitializerC1Ev
   fun:__cxx_global_var_init25
   fun:_GLOBAL__I_a
}
{
   <insert_a_suppression_name_here>
   Memcheck:Leak
   fun:malloc
   fun:PyObject_Malloc
   fun:PyString_FromString
   fun:PyString_InternFromString
   obj:/usr/lib64/libpython2.7.so.1.0
   fun:PyDescr_NewClassMethod
   fun:PyType_Ready
   fun:_Py_ReadyTypes
   fun:Py_InitializeEx
   fun:_ZN11dust_server17PythonInitializerC2Ev
   fun:_ZN11dust_server17PythonInitializerC1Ev
   fun:__cxx_global_var_init25
}
{
   <insert_a_suppression_name_here>
   Memcheck:Leak
   fun:malloc
   fun:PyObject_Malloc
   fun:PyString_FromString
   fun:PyString_InternFromString
   obj:/usr/lib64/libpython2.7.so.1.0
   fun:PyDescr_NewMethod
   fun:PyType_Ready
   fun:_Py_ReadyTypes
   fun:Py_InitializeEx
   fun:_ZN11dust_server17PythonInitializerC2Ev
   fun:_ZN11dust_server17PythonInitializerC1Ev
   fun:__cxx_global_var_init25
}
{
   <insert_a_suppression_name_here>
   Memcheck:Leak
   fun:malloc
   fun:PyObject_Malloc
   fun:PyString_FromStringAndSize
   obj:/usr/lib64/libpython2.7.so.1.0
   obj:/usr/lib64/libpython2.7.so.1.0
   obj:/usr/lib64/libpython2.7.so.1.0
   fun:Py_BuildValue
   fun:PyImport_Import
   fun:PyImport_ImportModule
   fun:_PyExc_Init
   fun:Py_InitializeEx
   fun:_ZN11dust_server17PythonInitializerC2Ev
}
{
   <insert_a_suppression_name_here>
   Memcheck:Leak
   fun:malloc
   fun:PyObject_Malloc
   fun:PyString_FromString
   fun:PyDict_SetItemString
   fun:PyModule_AddObject
   fun:_PyExc_Init
   fun:Py_InitializeEx
   fun:_ZN11dust_server17PythonInitializerC2Ev
   fun:_ZN11dust_server17PythonInitializerC1Ev
   fun:__cxx_global_var_init25
   fun:_GLOBAL__I_a
   fun:__libc_csu_init
}
{
   <insert_a_suppression_name_here>
   Memcheck:Leak
   fun:malloc
   fun:PyObject_Malloc
   fun:PyString_FromString
   fun:PyDict_SetItemString
   fun:PyModule_AddObject
   fun:_PyWarnings_Init
   fun:Py_InitializeEx
   fun:_ZN11dust_server17PythonInitializerC2Ev
   fun:_ZN11dust_server17PythonInitializerC1Ev
   fun:__cxx_global_var_init25
   fun:_GLOBAL__I_a
   fun:__libc_csu_init
}
{
   <insert_a_suppression_name_here>
   Memcheck:Leak
   fun:malloc
   fun:PyObject_Malloc
   fun:PyString_FromString
   fun:PyString_InternFromString
   obj:/usr/lib64/libpython2.7.so.1.0
   fun:PyObject_Dir
   obj:/usr/lib64/libpython2.7.so.1.0
   fun:PyEval_EvalFrameEx
   fun:PyEval_EvalFrameEx
   fun:PyEval_EvalCodeEx
   fun:PyEval_EvalCode
   fun:PyImport_ExecCodeModuleEx
}
{
   <insert_a_suppression_name_here>
   Memcheck:Leak
   fun:malloc
   fun:PyObject_Malloc
   fun:PyString_FromString
   fun:Py_InitModule4_64
   obj:/usr/lib64/libpython2.7.so.1.0
   obj:/usr/lib64/libpython2.7.so.1.0
   obj:/usr/lib64/libpython2.7.so.1.0
   obj:/usr/lib64/libpython2.7.so.1.0
   fun:PyImport_ImportModuleLevel
   obj:/usr/lib64/libpython2.7.so.1.0
   fun:PyObject_Call
   fun:PyEval_CallObjectWithKeywords
}
{
   <insert_a_suppression_name_here>
   Memcheck:Leak
   fun:malloc
   fun:PyObject_Malloc
   fun:PyString_FromString
   fun:PyString_InternFromString
   obj:/usr/lib64/libpython2.7.so.1.0
   fun:PyDescr_NewMember
   fun:PyType_Ready
   fun:_Py_ReadyTypes
   fun:Py_InitializeEx
   fun:_ZN11dust_server17PythonInitializerC2Ev
   fun:_ZN11dust_server17PythonInitializerC1Ev
   fun:__cxx_global_var_init25
}
{
   <insert_a_suppression_name_here>
   Memcheck:Leak
   fun:malloc
   fun:PyObject_Malloc
   fun:PyString_FromString
   fun:PyDict_SetItemString
   fun:PyStructSequence_InitType
   fun:_PyLong_Init
   fun:Py_InitializeEx
   fun:_ZN11dust_server17PythonInitializerC2Ev
   fun:_ZN11dust_server17PythonInitializerC1Ev
   fun:__cxx_global_var_init25
   fun:_GLOBAL__I_a
   fun:__libc_csu_init
}
{
   <insert_a_suppression_name_here>
   Memcheck:Leak
   fun:malloc
   fun:PyObject_Malloc
   fun:PyString_FromString
   fun:PyString_InternFromString
   fun:PyObject_GetAttrString
   fun:PyObject_HasAttrString
   obj:/usr/lib64/libpython2.7.so.1.0
   fun:PyImport_ImportModuleLevel
   obj:/usr/lib64/libpython2.7.so.1.0
   fun:PyObject_Call
   obj:/usr/lib64/libpython2.7.so.1.0
   fun:PyObject_CallFunction
}
{
   <insert_a_suppression_name_here>
   Memcheck:Leak
   fun:malloc
   fun:PyObject_Malloc
   fun:PyString_FromString
   fun:PyString_InternFromString
   obj:/usr/lib64/libpython2.7.so.1.0
   fun:PyDescr_NewGetSet
   fun:PyType_Ready
   fun:PyType_Ready
   fun:_Py_ReadyTypes
   fun:Py_InitializeEx
   fun:_ZN11dust_server17PythonInitializerC2Ev
   fun:_ZN11dust_server17PythonInitializerC1Ev
}
{
   <insert_a_suppression_name_here>
   Memcheck:Leak
   fun:malloc
   fun:PyObject_Malloc
   fun:PyString_FromString
   fun:PyModule_New
   fun:PyImport_AddModule
   obj:/usr/lib64/libpython2.7.so.1.0
   obj:/usr/lib64/libpython2.7.so.1.0
   obj:/usr/lib64/libpython2.7.so.1.0
   fun:PyImport_ImportModuleLevel
   obj:/usr/lib64/libpython2.7.so.1.0
   fun:_PyCodec_Lookup
   obj:/usr/lib64/libpython2.7.so.1.0
}
{
   <insert_a_suppression_name_here>
   Memcheck:Leak
   fun:malloc
   fun:PyObject_Malloc
   fun:PyString_FromString
   fun:PyDict_New
   fun:PyType_Ready
   fun:PyType_Ready
   fun:_Py_ReadyTypes
   fun:Py_InitializeEx
   fun:_ZN11dust_server17PythonInitializerC2Ev
   fun:_ZN11dust_server17PythonInitializerC1Ev
   fun:__cxx_global_var_init25
   fun:_GLOBAL__I_a
}
{
   <insert_a_suppression_name_here>
   Memcheck:Leak
   fun:malloc
   fun:PyObject_Malloc
   fun:PyString_FromString
   fun:PyDict_SetItemString
   fun:PyModule_New
   fun:PyImport_AddModule
   fun:Py_InitModule4_64
   fun:_PyBuiltin_Init
   fun:Py_InitializeEx
   fun:_ZN11dust_server17PythonInitializerC2Ev
   fun:_ZN11dust_server17PythonInitializerC1Ev
   fun:__cxx_global_var_init25
}
{
   <insert_a_suppression_name_here>
   Memcheck:Leak
   fun:malloc
   fun:PyObject_Malloc
   fun:PyString_FromString
   fun:PyDict_SetItemString
   fun:PyImport_AddModule
   fun:Py_InitModule4_64
   fun:_PyBuiltin_Init
   fun:Py_InitializeEx
   fun:_ZN11dust_server17PythonInitializerC2Ev
   fun:_ZN11dust_server17PythonInitializerC1Ev
   fun:__cxx_global_var_init25
   fun:_GLOBAL__I_a
}
{
   <insert_a_suppression_name_here>
   Memcheck:Leak
   fun:malloc
   fun:PyObject_Malloc
   fun:PyString_FromString
   fun:PyString_InternFromString
   obj:/usr/lib64/libpython2.7.so.1.0
   fun:PyDescr_NewMethod
   fun:PyType_Ready
   fun:_PyImportHooks_Init
   fun:Py_InitializeEx
   fun:_ZN11dust_server17PythonInitializerC2Ev
   fun:_ZN11dust_server17PythonInitializerC1Ev
   fun:__cxx_global_var_init25
}
{
   <insert_a_suppression_name_here>
   Memcheck:Leak
   fun:malloc
   fun:PyObject_Malloc
   fun:PyString_FromString
   fun:PyString_InternFromString
   obj:/usr/lib64/libpython2.7.so.1.0
   fun:PyDescr_NewGetSet
   fun:PyType_Ready
   obj:/usr/lib64/libpython2.7.so.1.0
   obj:/usr/lib64/libpython2.7.so.1.0
   fun:PyObject_Call
   obj:/usr/lib64/libpython2.7.so.1.0
   fun:PyObject_CallFunction
}
{
   <insert_a_suppression_name_here>
   Memcheck:Leak
   fun:malloc
   fun:PyObject_Malloc
   fun:PyString_FromStringAndSize
   obj:/usr/lib64/libpython2.7.so.1.0
   obj:/usr/lib64/libpython2.7.so.1.0
   obj:/usr/lib64/libpython2.7.so.1.0
   fun:PyObject_CallFunction
   fun:PyErr_NewException
   fun:initsignal
   fun:PyOS_InitInterrupts
   fun:Py_InitializeEx
   fun:_ZN11dust_server17PythonInitializerC2Ev
}
{
   <insert_a_suppression_name_here>
   Memcheck:Leak
   fun:malloc
   fun:PyObject_Malloc
   fun:PyString_FromString
   obj:/usr/lib64/libpython2.7.so.1.0
   obj:/usr/lib64/libpython2.7.so.1.0
   fun:PyObject_Call
   fun:PyEval_EvalFrameEx
   fun:PyEval_EvalCodeEx
   obj:/usr/lib64/libpython2.7.so.1.0
   fun:PyObject_Call
   obj:/usr/lib64/libpython2.7.so.1.0
   obj:/usr/lib64/libpython2.7.so.1.0
}
{
   <insert_a_suppression_name_here>
   Memcheck:Leak
   fun:malloc
   fun:PyObject_Malloc
   fun:PyString_FromString
   fun:PyString_InternFromString
   obj:/usr/lib64/libpython2.7.so.1.0
   fun:PyDescr_NewGetSet
   fun:PyType_Ready
   fun:_ZN5boost6python7objects20function_handle_implERKNS1_11py_functionE
   fun:_ZN5boost6python29make_instance_reduce_functionEv
   fun:_ZN5boost6python7objects10class_baseC1EPKcmPKNS0_9type_infoES4_
   fun:_ZN5boost6python6class_IN4dust8documentENS0_6detail13not_specifiedES5_S5_EC2INS0_4initISt8weak_ptrINS2_15key_value_storeEESsN4mpl_5void_ESD_SD_SD_SD_SD_SD_SD_SD_SD_SD_SD_SD_EEEEPKcRKNS0_9init_baseIT_EE
   fun:_ZN5boost6python6class_IN4dust8documentENS0_6detail13not_specifiedES5_S5_EC1INS0_4initISt8weak_ptrINS2_15key_value_storeEESsN4mpl_5void_ESD_SD_SD_SD_SD_SD_SD_SD_SD_SD_SD_SD_EEEEPKcRKNS0_9init_baseIT_EE
}
{
   <insert_a_suppression_name_here>
   Memcheck:Leak
   fun:malloc
   fun:PyObject_Malloc
   fun:PyString_FromString
   fun:PyString_InternFromString
   fun:_PyFrame_Init
   fun:Py_InitializeEx
   fun:_ZN11dust_server17PythonInitializerC2Ev
   fun:_ZN11dust_server17PythonInitializerC1Ev
   fun:__cxx_global_var_init25
   fun:_GLOBAL__I_a
   fun:__libc_csu_init
   fun:(below main)
}
{
   <insert_a_suppression_name_here>
   Memcheck:Leak
   fun:malloc
   fun:PyObject_Malloc
   fun:PyString_FromString
   fun:PyString_InternFromString
   obj:/usr/lib64/libpython2.7.so.1.0
   fun:PyDescr_NewMethod
   fun:PyType_Ready
   fun:_PyExc_Init
   fun:Py_InitializeEx
   fun:_ZN11dust_server17PythonInitializerC2Ev
   fun:_ZN11dust_server17PythonInitializerC1Ev
   fun:__cxx_global_var_init25
}
{
   <insert_a_suppression_name_here>
   Memcheck:Leak
   fun:malloc
   fun:PyObject_Malloc
   fun:PyString_FromString
   fun:PyString_InternFromString
   obj:/usr/lib64/libpython2.7.so.1.0
   fun:PyDescr_NewGetSet
   fun:PyType_Ready
   fun:_Py_ReadyTypes
   fun:Py_InitializeEx
   fun:_ZN11dust_server17PythonInitializerC2Ev
   fun:_ZN11dust_server17PythonInitializerC1Ev
   fun:__cxx_global_var_init25
}
{
   <insert_a_suppression_name_here>
   Memcheck:Leak
   fun:malloc
   fun:PyObject_Malloc
   fun:PyString_FromString
   fun:PyType_Ready
   fun:_PyExc_Init
   fun:Py_InitializeEx
   fun:_ZN11dust_server17PythonInitializerC2Ev
   fun:_ZN11dust_server17PythonInitializerC1Ev
   fun:__cxx_global_var_init25
   fun:_GLOBAL__I_a
   fun:__libc_csu_init
   fun:(below main)
}
{
   <insert_a_suppression_name_here>
   Memcheck:Leak
   fun:malloc
   fun:PyObject_Malloc
   fun:PyString_FromString
   fun:PyDict_SetItemString
   fun:PyModule_AddObject
   fun:Py_InitializeEx
   fun:_ZN11dust_server17PythonInitializerC2Ev
   fun:_ZN11dust_server17PythonInitializerC1Ev
   fun:__cxx_global_var_init25
   fun:_GLOBAL__I_a
   fun:__libc_csu_init
   fun:(below main)
}
{
   <insert_a_suppression_name_here>
   Memcheck:Leak
   fun:malloc
   fun:PyObject_Malloc
   fun:PyString_FromString
   fun:PyModule_New
   fun:PyImport_AddModule
   fun:PyImport_ExecCodeModuleEx
   obj:/usr/lib64/libpython2.7.so.1.0
   obj:/usr/lib64/libpython2.7.so.1.0
   obj:/usr/lib64/libpython2.7.so.1.0
   fun:PyImport_ImportModuleLevel
   obj:/usr/lib64/libpython2.7.so.1.0
   fun:PyEval_EvalFrameEx
}
{
   <insert_a_suppression_name_here>
   Memcheck:Leak
   fun:malloc
   fun:PyObject_Malloc
   fun:PyString_FromString
   fun:PyString_InternFromString
   obj:/usr/lib64/libpython2.7.so.1.0
   fun:PyDescr_NewClassMethod
   fun:PyType_Ready
   fun:PyType_Ready
   fun:_Py_ReadyTypes
   fun:Py_InitializeEx
   fun:_ZN11dust_server17PythonInitializerC2Ev
   fun:_ZN11dust_server17PythonInitializerC1Ev
}
{
   <insert_a_suppression_name_here>
   Memcheck:Leak
   fun:malloc
   fun:PyObject_Malloc
   fun:PyString_FromString
   fun:PyType_Ready
   fun:PyType_Ready
   fun:_Py_ReadyTypes
   fun:Py_InitializeEx
   fun:_ZN11dust_server17PythonInitializerC2Ev
   fun:_ZN11dust_server17PythonInitializerC1Ev
   fun:__cxx_global_var_init25
   fun:_GLOBAL__I_a
   fun:__libc_csu_init
}
{
   <insert_a_suppression_name_here>
   Memcheck:Leak
   fun:malloc
   fun:PyObject_Malloc
   fun:_PyObject_GC_Malloc
   fun:_PyObject_GC_New
   fun:PyCell_New
   fun:PyEval_EvalCodeEx
   fun:PyEval_EvalFrameEx
   fun:PyEval_EvalFrameEx
   fun:PyEval_EvalCodeEx
   fun:PyEval_EvalCode
   fun:PyImport_ExecCodeModuleEx
   obj:/usr/lib64/libpython2.7.so.1.0
}
{
   <insert_a_suppression_name_here>
   Memcheck:Leak
   fun:malloc
   fun:PyObject_Malloc
   fun:PyString_FromString
   fun:PyString_InternFromString
   obj:/usr/lib64/libpython2.7.so.1.0
   fun:PyFile_FromFile
   fun:_PySys_Init
   fun:Py_InitializeEx
   fun:_ZN11dust_server17PythonInitializerC2Ev
   fun:_ZN11dust_server17PythonInitializerC1Ev
   fun:__cxx_global_var_init25
   fun:_GLOBAL__I_a
}
{
   <insert_a_suppression_name_here>
   Memcheck:Leak
   fun:malloc
   fun:PyObject_Malloc
   fun:PyString_FromString
   fun:PyType_Ready
   fun:_PyImportHooks_Init
   fun:Py_InitializeEx
   fun:_ZN11dust_server17PythonInitializerC2Ev
   fun:_ZN11dust_server17PythonInitializerC1Ev
   fun:__cxx_global_var_init25
   fun:_GLOBAL__I_a
   fun:__libc_csu_init
   fun:(below main)
}
{
   <insert_a_suppression_name_here>
   Memcheck:Leak
   fun:malloc
   fun:PyObject_Malloc
   fun:PyString_FromString
   obj:/usr/lib64/libpython2.7.so.1.0
   fun:PyEval_EvalFrameEx
   fun:PyEval_EvalCodeEx
   fun:PyEval_EvalCode
   fun:PyImport_ExecCodeModuleEx
   obj:/usr/lib64/libpython2.7.so.1.0
   obj:/usr/lib64/libpython2.7.so.1.0
   obj:/usr/lib64/libpython2.7.so.1.0
   fun:PyImport_ImportModuleLevel
}
{
   <insert_a_suppression_name_here>
   Memcheck:Leak
   fun:realloc
   obj:/usr/lib64/libpython2.7.so.1.0
   obj:/usr/lib64/libpython2.7.so.1.0
   obj:/usr/lib64/libpython2.7.so.1.0
   fun:PyType_Ready
   obj:/usr/lib64/libpython2.7.so.1.0
   obj:/usr/lib64/libpython2.7.so.1.0
   fun:PyObject_Call
   fun:PyObject_CallFunctionObjArgs
   fun:PyEval_EvalFrameEx
   fun:PyEval_EvalCodeEx
   fun:PyEval_EvalCode
}
{
   <insert_a_suppression_name_here>
   Memcheck:Leak
   fun:malloc
   fun:realloc
   obj:/usr/lib64/libpython2.7.so.1.0
   obj:/usr/lib64/libpython2.7.so.1.0
   obj:/usr/lib64/libpython2.7.so.1.0
   fun:PyType_Ready
   obj:/usr/lib64/libpython2.7.so.1.0
   obj:/usr/lib64/libpython2.7.so.1.0
   fun:PyObject_Call
   obj:/usr/lib64/libpython2.7.so.1.0
   fun:PyObject_CallFunction
   fun:PyErr_NewException
}
{
   <insert_a_suppression_name_here>
   Memcheck:Leak
   fun:malloc
   fun:PyObject_Malloc
   fun:_PyObject_GC_Malloc
   fun:PyType_GenericAlloc
   obj:/usr/lib64/libpython2.7.so.1.0
   fun:PyDescr_NewMethod
   fun:PyType_Ready
   fun:_Py_ReadyTypes
   fun:Py_InitializeEx
   fun:_ZN11dust_server17PythonInitializerC2Ev
   fun:_ZN11dust_server17PythonInitializerC1Ev
   fun:__cxx_global_var_init25
}
{
   <insert_a_suppression_name_here>
   Memcheck:Leak
   fun:malloc
   fun:PyObject_Malloc
   fun:_PyObject_GC_Malloc
   fun:_PyObject_GC_New
   fun:PyCFunction_NewEx
   fun:PyType_Ready
   fun:PyType_Ready
   fun:_Py_ReadyTypes
   fun:Py_InitializeEx
   fun:_ZN11dust_server17PythonInitializerC2Ev
   fun:_ZN11dust_server17PythonInitializerC1Ev
   fun:__cxx_global_var_init25
}
{
   <insert_a_suppression_name_here>
   Memcheck:Leak
   fun:malloc
   fun:PyObject_Malloc
   fun:_PyObject_GC_Malloc
   fun:PyType_GenericAlloc
   obj:/usr/lib64/libpython2.7.so.1.0
   fun:PyDescr_NewClassMethod
   fun:PyType_Ready
   fun:PyType_Ready
   fun:_Py_ReadyTypes
   fun:Py_InitializeEx
   fun:_ZN11dust_server17PythonInitializerC2Ev
   fun:_ZN11dust_server17PythonInitializerC1Ev
}
{
   <insert_a_suppression_name_here>
   Memcheck:Leak
   fun:malloc
   fun:PyObject_Malloc
   fun:_PyObject_GC_Malloc
   fun:PyType_GenericAlloc
   obj:/usr/lib64/libpython2.7.so.1.0
   fun:PyDescr_NewGetSet
   fun:PyType_Ready
   fun:PyType_Ready
   fun:_Py_ReadyTypes
   fun:Py_InitializeEx
   fun:_ZN11dust_server17PythonInitializerC2Ev
   fun:_ZN11dust_server17PythonInitializerC1Ev
}
{
   <insert_a_suppression_name_here>
   Memcheck:Leak
   fun:malloc
   fun:PyObject_Malloc
   fun:_PyObject_GC_Malloc
   fun:_PyObject_GC_New
   fun:PyList_New
   obj:/usr/lib64/libpython2.7.so.1.0
   obj:/usr/lib64/libpython2.7.so.1.0
   fun:PyType_Ready
   fun:PyType_Ready
   fun:_Py_ReadyTypes
   fun:Py_InitializeEx
   fun:_ZN11dust_server17PythonInitializerC2Ev
}
{
   <insert_a_suppression_name_here>
   Memcheck:Leak
   fun:malloc
   fun:PyObject_Malloc
   fun:_PyObject_GC_Malloc
   fun:_PyObject_GC_New
   fun:PyList_New
   fun:PySequence_List
   obj:/usr/lib64/libpython2.7.so.1.0
   obj:/usr/lib64/libpython2.7.so.1.0
   fun:PyType_Ready
   fun:PyType_Ready
   fun:_Py_ReadyTypes
   fun:Py_InitializeEx
}
{
   <insert_a_suppression_name_here>
   Memcheck:Leak
   fun:malloc
   fun:PyObject_Malloc
   fun:_PyObject_GC_Malloc
   fun:_PyObject_GC_New
   fun:PyCFunction_NewEx
   fun:PyType_Ready
   fun:_Py_ReadyTypes
   fun:Py_InitializeEx
   fun:_ZN11dust_server17PythonInitializerC2Ev
   fun:_ZN11dust_server17PythonInitializerC1Ev
   fun:__cxx_global_var_init25
   fun:_GLOBAL__I_a
}
{
   <insert_a_suppression_name_here>
   Memcheck:Leak
   fun:malloc
   fun:PyObject_Malloc
   fun:_PyObject_GC_Malloc
   fun:_PyObject_GC_New
   fun:PyList_New
   obj:/usr/lib64/libpython2.7.so.1.0
   obj:/usr/lib64/libpython2.7.so.1.0
   fun:Py_BuildValue
   obj:/usr/lib64/libpython2.7.so.1.0
   obj:/usr/lib64/libpython2.7.so.1.0
   fun:PyType_Ready
   fun:_Py_ReadyTypes
}
{
   <insert_a_suppression_name_here>
   Memcheck:Leak
   fun:malloc
   fun:PyObject_Malloc
   fun:_PyObject_GC_Malloc
   fun:PyType_GenericAlloc
   obj:/usr/lib64/libpython2.7.so.1.0
   fun:PyDescr_NewClassMethod
   fun:PyType_Ready
   fun:_Py_ReadyTypes
   fun:Py_InitializeEx
   fun:_ZN11dust_server17PythonInitializerC2Ev
   fun:_ZN11dust_server17PythonInitializerC1Ev
   fun:__cxx_global_var_init25
}
{
   <insert_a_suppression_name_here>
   Memcheck:Leak
   fun:malloc
   fun:PyObject_Malloc
   fun:_PyObject_GC_Malloc
   fun:PyType_GenericAlloc
   obj:/usr/lib64/libpython2.7.so.1.0
   fun:PyDescr_NewMember
   fun:PyType_Ready
   fun:_Py_ReadyTypes
   fun:Py_InitializeEx
   fun:_ZN11dust_server17PythonInitializerC2Ev
   fun:_ZN11dust_server17PythonInitializerC1Ev
   fun:__cxx_global_var_init25
}
{
   <insert_a_suppression_name_here>
   Memcheck:Leak
   fun:malloc
   fun:PyObject_Malloc
   fun:_PyObject_GC_Malloc
   fun:_PyObject_GC_New
   fun:PyCFunction_NewEx
   fun:PyType_Ready
   fun:_PyExc_Init
   fun:Py_InitializeEx
   fun:_ZN11dust_server17PythonInitializerC2Ev
   fun:_ZN11dust_server17PythonInitializerC1Ev
   fun:__cxx_global_var_init25
   fun:_GLOBAL__I_a
}
{
   <insert_a_suppression_name_here>
   Memcheck:Leak
   fun:malloc
   fun:PyObject_Malloc
   fun:_PyObject_GC_Malloc
   fun:_PyObject_GC_New
   fun:PyList_New
   obj:/usr/lib64/libpython2.7.so.1.0
   obj:/usr/lib64/libpython2.7.so.1.0
   fun:Py_BuildValue
   obj:/usr/lib64/libpython2.7.so.1.0
   obj:/usr/lib64/libpython2.7.so.1.0
   fun:PyType_Ready
   fun:_PyExc_Init
}
{
   <insert_a_suppression_name_here>
   Memcheck:Leak
   fun:malloc
   fun:PyObject_Malloc
   fun:_PyObject_GC_Malloc
   fun:PyType_GenericAlloc
   obj:/usr/lib64/libpython2.7.so.1.0
   fun:PyDescr_NewGetSet
   fun:PyType_Ready
   fun:_Py_ReadyTypes
   fun:Py_InitializeEx
   fun:_ZN11dust_server17PythonInitializerC2Ev
   fun:_ZN11dust_server17PythonInitializerC1Ev
   fun:__cxx_global_var_init25
}
{
   <insert_a_suppression_name_here>
   Memcheck:Leak
   fun:malloc
   fun:PyObject_Malloc
   fun:_PyObject_GC_Malloc
   fun:_PyObject_GC_New
   fun:PyCFunction_NewEx
   fun:PyType_Ready
   fun:PyStructSequence_InitType
   fun:_PyLong_Init
   fun:Py_InitializeEx
   fun:_ZN11dust_server17PythonInitializerC2Ev
   fun:_ZN11dust_server17PythonInitializerC1Ev
   fun:__cxx_global_var_init25
}
{
   <insert_a_suppression_name_here>
   Memcheck:Leak
   fun:malloc
   fun:PyObject_Malloc
   fun:_PyObject_GC_Malloc
   fun:PyType_GenericAlloc
   obj:/usr/lib64/libpython2.7.so.1.0
   fun:PyDescr_NewMethod
   fun:PyType_Ready
   fun:PyStructSequence_InitType
   fun:_PyLong_Init
   fun:Py_InitializeEx
   fun:_ZN11dust_server17PythonInitializerC2Ev
   fun:_ZN11dust_server17PythonInitializerC1Ev
}
{
   <insert_a_suppression_name_here>
   Memcheck:Leak
   fun:malloc
   fun:PyObject_Malloc
   fun:_PyObject_GC_Malloc
   fun:_PyObject_GC_New
   fun:PyCFunction_NewEx
   fun:PyType_Ready
   fun:PyStructSequence_InitType
   fun:Py_InitializeEx
   fun:_ZN11dust_server17PythonInitializerC2Ev
   fun:_ZN11dust_server17PythonInitializerC1Ev
   fun:__cxx_global_var_init25
   fun:_GLOBAL__I_a
}
{
   <insert_a_suppression_name_here>
   Memcheck:Leak
   fun:malloc
   fun:PyObject_Malloc
   fun:_PyObject_GC_Malloc
   fun:PyType_GenericAlloc
   obj:/usr/lib64/libpython2.7.so.1.0
   fun:PyDescr_NewMethod
   fun:PyType_Ready
   fun:PyStructSequence_InitType
   fun:Py_InitializeEx
   fun:_ZN11dust_server17PythonInitializerC2Ev
   fun:_ZN11dust_server17PythonInitializerC1Ev
   fun:__cxx_global_var_init25
}
{
   <insert_a_suppression_name_here>
   Memcheck:Leak
   fun:malloc
   fun:PyObject_Malloc
   fun:_PyObject_GC_Malloc
   fun:PyType_GenericAlloc
   obj:/usr/lib64/libpython2.7.so.1.0
   fun:PyDescr_NewMethod
   fun:PyType_Ready
   fun:_PyUnicodeUCS4_Init
   fun:Py_InitializeEx
   fun:_ZN11dust_server17PythonInitializerC2Ev
   fun:_ZN11dust_server17PythonInitializerC1Ev
   fun:__cxx_global_var_init25
}
{
   <insert_a_suppression_name_here>
   Memcheck:Leak
   fun:malloc
   fun:PyObject_Malloc
   fun:_PyObject_GC_Malloc
   fun:_PyObject_GC_New
   fun:PyCFunction_NewEx
   fun:PyType_Ready
   fun:PyStructSequence_InitType
   fun:_PySys_Init
   fun:Py_InitializeEx
   fun:_ZN11dust_server17PythonInitializerC2Ev
   fun:_ZN11dust_server17PythonInitializerC1Ev
   fun:__cxx_global_var_init25
}
{
   <insert_a_suppression_name_here>
   Memcheck:Leak
   fun:malloc
   fun:PyObject_Malloc
   fun:_PyObject_GC_Malloc
   fun:PyType_GenericAlloc
   obj:/usr/lib64/libpython2.7.so.1.0
   fun:PyDescr_NewMethod
   fun:PyType_Ready
   fun:PyStructSequence_InitType
   fun:_PySys_Init
   fun:Py_InitializeEx
   fun:_ZN11dust_server17PythonInitializerC2Ev
   fun:_ZN11dust_server17PythonInitializerC1Ev
}
{
   <insert_a_suppression_name_here>
   Memcheck:Leak
   fun:malloc
   fun:PyObject_Malloc
   fun:_PyObject_GC_Malloc
   fun:_PyObject_GC_New
   fun:PyList_New
   obj:/usr/lib64/libpython2.7.so.1.0
   obj:/usr/lib64/libpython2.7.so.1.0
   fun:Py_BuildValue
   obj:/usr/lib64/libpython2.7.so.1.0
   obj:/usr/lib64/libpython2.7.so.1.0
   fun:PyType_Ready
   fun:PyStructSequence_InitType
}
{
   <insert_a_suppression_name_here>
   Memcheck:Leak
   fun:malloc
   fun:PyObject_Malloc
   fun:_PyObject_GC_Malloc
   fun:PyType_GenericAlloc
   obj:/usr/lib64/libpython2.7.so.1.0
   fun:PyDescr_NewMember
   fun:PyType_Ready
   fun:_PyExc_Init
   fun:Py_InitializeEx
   fun:_ZN11dust_server17PythonInitializerC2Ev
   fun:_ZN11dust_server17PythonInitializerC1Ev
   fun:__cxx_global_var_init25
}
{
   <insert_a_suppression_name_here>
   Memcheck:Leak
   fun:malloc
   fun:PyObject_Malloc
   fun:_PyObject_GC_Malloc
   fun:PyType_GenericAlloc
   obj:/usr/lib64/libpython2.7.so.1.0
   fun:PyDescr_NewMethod
   fun:PyType_Ready
   fun:_PyExc_Init
   fun:Py_InitializeEx
   fun:_ZN11dust_server17PythonInitializerC2Ev
   fun:_ZN11dust_server17PythonInitializerC1Ev
   fun:__cxx_global_var_init25
}
{
   <insert_a_suppression_name_here>
   Memcheck:Leak
   fun:malloc
   fun:PyObject_Malloc
   fun:PyString_FromString
   fun:PyType_Ready
   fun:init_sre
   obj:/usr/lib64/libpython2.7.so.1.0
   obj:/usr/lib64/libpython2.7.so.1.0
   obj:/usr/lib64/libpython2.7.so.1.0
   obj:/usr/lib64/libpython2.7.so.1.0
   fun:PyImport_ImportModuleLevel
   obj:/usr/lib64/libpython2.7.so.1.0
   fun:PyObject_Call
}
{
   <insert_a_suppression_name_here>
   Memcheck:Leak
   fun:malloc
   fun:PyObject_Malloc
   fun:_PyObject_GC_Malloc
   fun:PyType_GenericAlloc
   obj:/usr/lib64/libpython2.7.so.1.0
   fun:PyDescr_NewMember
   fun:PyType_Ready
   fun:init_sre
   obj:/usr/lib64/libpython2.7.so.1.0
   obj:/usr/lib64/libpython2.7.so.1.0
   obj:/usr/lib64/libpython2.7.so.1.0
   obj:/usr/lib64/libpython2.7.so.1.0
}
{
   <insert_a_suppression_name_here>
   Memcheck:Leak
   fun:malloc
   fun:PyObject_Malloc
   fun:_PyObject_GC_Malloc
   fun:_PyObject_GC_New
   fun:PyCFunction_NewEx
   fun:PyType_Ready
   fun:_PyObject_GenericGetAttrWithDict
   fun:PyImport_Import
   fun:PyImport_ImportModule
   fun:_PyExc_Init
   fun:Py_InitializeEx
   fun:_ZN11dust_server17PythonInitializerC2Ev
}
{
   <insert_a_suppression_name_here>
   Memcheck:Leak
   fun:malloc
   fun:PyObject_Malloc
   fun:_PyObject_GC_Malloc
   fun:PyType_GenericAlloc
   obj:/usr/lib64/libpython2.7.so.1.0
   fun:PyDescr_NewMember
   fun:PyType_Ready
   fun:_PyObject_GenericGetAttrWithDict
   fun:PyImport_Import
   fun:PyImport_ImportModule
   fun:_PyExc_Init
   fun:Py_InitializeEx
}
{
   <insert_a_suppression_name_here>
   Memcheck:Leak
   fun:malloc
   fun:PyObject_Malloc
   fun:_PyObject_GC_Malloc
   fun:_PyObject_GC_New
   fun:PyList_New
   obj:/usr/lib64/libpython2.7.so.1.0
   obj:/usr/lib64/libpython2.7.so.1.0
   fun:Py_BuildValue
   obj:/usr/lib64/libpython2.7.so.1.0
   obj:/usr/lib64/libpython2.7.so.1.0
   fun:PyType_Ready
   fun:_PyObject_GenericGetAttrWithDict
}
{
   <insert_a_suppression_name_here>
   Memcheck:Leak
   fun:malloc
   fun:PyObject_Malloc
   fun:_PyObject_GC_Malloc
   fun:_PyObject_GC_New
   fun:PyCFunction_NewEx
   fun:PyType_Ready
   fun:_PyImportHooks_Init
   fun:Py_InitializeEx
   fun:_ZN11dust_server17PythonInitializerC2Ev
   fun:_ZN11dust_server17PythonInitializerC1Ev
   fun:__cxx_global_var_init25
   fun:_GLOBAL__I_a
}
{
   <insert_a_suppression_name_here>
   Memcheck:Leak
   fun:malloc
   fun:PyObject_Malloc
   fun:_PyObject_GC_Malloc
   fun:PyType_GenericAlloc
   obj:/usr/lib64/libpython2.7.so.1.0
   fun:PyDescr_NewMethod
   fun:PyType_Ready
   fun:_PyImportHooks_Init
   fun:Py_InitializeEx
   fun:_ZN11dust_server17PythonInitializerC2Ev
   fun:_ZN11dust_server17PythonInitializerC1Ev
   fun:__cxx_global_var_init25
}
{
   <insert_a_suppression_name_here>
   Memcheck:Leak
   fun:malloc
   fun:PyObject_Malloc
   fun:_PyObject_GC_Malloc
   fun:_PyObject_GC_New
   fun:PyCFunction_NewEx
   fun:PyType_Ready
   fun:initzipimport
   obj:/usr/lib64/libpython2.7.so.1.0
   obj:/usr/lib64/libpython2.7.so.1.0
   obj:/usr/lib64/libpython2.7.so.1.0
   obj:/usr/lib64/libpython2.7.so.1.0
   fun:PyImport_ImportModuleLevel
}
{
   <insert_a_suppression_name_here>
   Memcheck:Leak
   fun:malloc
   fun:PyObject_Malloc
   fun:_PyObject_GC_Malloc
   fun:_PyObject_GC_New
   fun:PyList_New
   fun:PySequence_List
   obj:/usr/lib64/libpython2.7.so.1.0
   obj:/usr/lib64/libpython2.7.so.1.0
   fun:PyType_Ready
   fun:initzipimport
   obj:/usr/lib64/libpython2.7.so.1.0
   obj:/usr/lib64/libpython2.7.so.1.0
}
{
   <insert_a_suppression_name_here>
   Memcheck:Leak
   fun:malloc
   fun:PyObject_Malloc
   fun:_PyObject_GC_Malloc
   fun:_PyObject_GC_New
   fun:PyList_New
   obj:/usr/lib64/libpython2.7.so.1.0
   obj:/usr/lib64/libpython2.7.so.1.0
   fun:Py_BuildValue
   obj:/usr/lib64/libpython2.7.so.1.0
   obj:/usr/lib64/libpython2.7.so.1.0
   fun:PyType_Ready
   fun:initzipimport
}
{
   <insert_a_suppression_name_here>
   Memcheck:Leak
   fun:malloc
   fun:PyObject_Malloc
   fun:_PyObject_GC_Malloc
   fun:_PyObject_GC_New
   fun:PyCFunction_NewEx
   fun:PyType_Ready
   fun:PyStructSequence_InitType
   fun:initposix
   obj:/usr/lib64/libpython2.7.so.1.0
   obj:/usr/lib64/libpython2.7.so.1.0
   obj:/usr/lib64/libpython2.7.so.1.0
   obj:/usr/lib64/libpython2.7.so.1.0
}
{
   <insert_a_suppression_name_here>
   Memcheck:Leak
   fun:malloc
   fun:PyObject_Malloc
   fun:_PyObject_GC_Malloc
   fun:PyType_GenericAlloc
   obj:/usr/lib64/libpython2.7.so.1.0
   fun:PyDescr_NewMethod
   fun:PyType_Ready
   fun:PyStructSequence_InitType
   fun:initposix
   obj:/usr/lib64/libpython2.7.so.1.0
   obj:/usr/lib64/libpython2.7.so.1.0
   obj:/usr/lib64/libpython2.7.so.1.0
}
{
   <insert_a_suppression_name_here>
   Memcheck:Leak
   fun:malloc
   fun:PyObject_Malloc
   fun:_PyObject_GC_Malloc
   fun:_PyObject_GC_New
   fun:PyList_New
   fun:PySequence_List
   obj:/usr/lib64/libpython2.7.so.1.0
   obj:/usr/lib64/libpython2.7.so.1.0
   fun:PyType_Ready
   fun:PyStructSequence_InitType
   fun:initposix
   obj:/usr/lib64/libpython2.7.so.1.0
}
{
   <insert_a_suppression_name_here>
   Memcheck:Leak
   fun:malloc
   fun:PyObject_Malloc
   fun:_PyObject_GC_Malloc
   fun:_PyObject_GC_New
   fun:PyCFunction_NewEx
   obj:/usr/lib64/libpython2.7.so.1.0
   fun:PyObject_IsSubclass
   fun:PyErr_GivenExceptionMatches
   fun:PyEval_EvalFrameEx
   fun:PyEval_EvalCodeEx
   fun:PyEval_EvalCode
   fun:PyImport_ExecCodeModuleEx
}
{
   <insert_a_suppression_name_here>
   Memcheck:Leak
   fun:malloc
   fun:PyObject_Malloc
   fun:_PyObject_GC_Malloc
   fun:_PyObject_GC_New
   fun:PyList_New
   fun:PySequence_List
   obj:/usr/lib64/libpython2.7.so.1.0
   obj:/usr/lib64/libpython2.7.so.1.0
   fun:PyType_Ready
   obj:/usr/lib64/libpython2.7.so.1.0
   obj:/usr/lib64/libpython2.7.so.1.0
   fun:PyObject_Call
}
{
   <insert_a_suppression_name_here>
   Memcheck:Leak
   fun:malloc
   fun:PyObject_Malloc
   fun:_PyObject_GC_Malloc
   fun:_PyObject_GC_New
   fun:PyCFunction_NewEx
   obj:/usr/lib64/libpython2.7.so.1.0
   obj:/usr/lib64/libpython2.7.so.1.0
   obj:/usr/lib64/libpython2.7.so.1.0
   fun:PyType_Ready
   obj:/usr/lib64/libpython2.7.so.1.0
   obj:/usr/lib64/libpython2.7.so.1.0
   fun:PyEval_EvalFrameEx
}
{
   <insert_a_suppression_name_here>
   Memcheck:Leak
   fun:malloc
   fun:PyObject_Malloc
   fun:_PyObject_GC_Malloc
   fun:PyType_GenericAlloc
   obj:/usr/lib64/libpython2.7.so.1.0
   fun:PyDescr_NewMember
   fun:PyType_Ready
   fun:_PyObject_GenericGetAttrWithDict
   obj:/usr/lib64/libpython2.7.so.1.0
   fun:PyEval_EvalFrameEx
   obj:/usr/lib64/libpython2.7.so.1.0
   fun:PyIter_Next
}
{
   <insert_a_suppression_name_here>
   Memcheck:Leak
   fun:malloc
   fun:PyObject_Malloc
   fun:_PyObject_GC_Malloc
   fun:_PyObject_GC_New
   fun:PyList_New
   obj:/usr/lib64/libpython2.7.so.1.0
   fun:PyObject_Call
   fun:PyEval_CallObjectWithKeywords
   obj:/usr/lib64/libpython2.7.so.1.0
   fun:PyType_Ready
   obj:/usr/lib64/libpython2.7.so.1.0
   obj:/usr/lib64/libpython2.7.so.1.0
}
{
   <insert_a_suppression_name_here>
   Memcheck:Leak
   fun:malloc
   fun:PyObject_Malloc
   fun:_PyObject_GC_Malloc
   fun:_PyObject_GC_New
   fun:PyList_New
   fun:PySymtable_Build
   fun:PyAST_Compile
   obj:/usr/lib64/libpython2.7.so.1.0
   fun:PyRun_StringFlags
   fun:PyEval_EvalFrameEx
   fun:PyEval_EvalCodeEx
   fun:PyEval_EvalFrameEx
}
{
   <insert_a_suppression_name_here>
   Memcheck:Leak
   fun:malloc
   fun:PyObject_Malloc
   fun:_PyObject_GC_Malloc
   fun:_PyObject_GC_New
   fun:PyList_New
   obj:/usr/lib64/libpython2.7.so.1.0
   obj:/usr/lib64/libpython2.7.so.1.0
   obj:/usr/lib64/libpython2.7.so.1.0
   fun:PyAST_Compile
   obj:/usr/lib64/libpython2.7.so.1.0
   fun:PyRun_StringFlags
   fun:PyEval_EvalFrameEx
}
{
   <insert_a_suppression_name_here>
   Memcheck:Leak
   fun:malloc
   fun:PyObject_Malloc
   fun:_PyObject_GC_Malloc
   fun:_PyObject_GC_New
   fun:PyCFunction_NewEx
   fun:Py_InitModule4_64
   obj:/usr/lib64/libpython2.7.so.1.0
   obj:/usr/lib64/libpython2.7.so.1.0
   obj:/usr/lib64/libpython2.7.so.1.0
   obj:/usr/lib64/libpython2.7.so.1.0
   fun:PyImport_ImportModuleLevel
   obj:/usr/lib64/libpython2.7.so.1.0
}
{
   <insert_a_suppression_name_here>
   Memcheck:Leak
   fun:malloc
   fun:PyObject_Malloc
   fun:_PyObject_GC_Malloc
   fun:PyType_GenericAlloc
   obj:/usr/lib64/libpython2.7.so.1.0
   fun:PyDescr_NewMember
   fun:PyType_Ready
   fun:_ZN5boost6python7objects10class_typeEv
   fun:_ZN5boost6python7objects10class_baseC1EPKcmPKNS0_9type_infoES4_
   fun:_ZN5boost6python6class_IN4dust8documentENS0_6detail13not_specifiedES5_S5_EC2INS0_4initISt8weak_ptrINS2_15key_value_storeEESsN4mpl_5void_ESD_SD_SD_SD_SD_SD_SD_SD_SD_SD_SD_SD_EEEEPKcRKNS0_9init_baseIT_EE
   fun:_ZN5boost6python6class_IN4dust8documentENS0_6detail13not_specifiedES5_S5_EC1INS0_4initISt8weak_ptrINS2_15key_value_storeEESsN4mpl_5void_ESD_SD_SD_SD_SD_SD_SD_SD_SD_SD_SD_SD_EEEEPKcRKNS0_9init_baseIT_EE
   fun:_ZN11dust_server16init_module_DustEv
}
{
   <insert_a_suppression_name_here>
   Memcheck:Leak
   fun:malloc
   fun:PyObject_Malloc
   fun:_PyObject_GC_Malloc
   fun:PyType_GenericAlloc
   obj:/usr/lib64/libpython2.7.so.1.0
   fun:PyDescr_NewGetSet
   fun:PyType_Ready
   fun:_ZN5boost6python7objects10class_typeEv
   fun:_ZN5boost6python7objects10class_baseC1EPKcmPKNS0_9type_infoES4_
   fun:_ZN5boost6python6class_IN4dust8documentENS0_6detail13not_specifiedES5_S5_EC2INS0_4initISt8weak_ptrINS2_15key_value_storeEESsN4mpl_5void_ESD_SD_SD_SD_SD_SD_SD_SD_SD_SD_SD_SD_EEEEPKcRKNS0_9init_baseIT_EE
   fun:_ZN5boost6python6class_IN4dust8documentENS0_6detail13not_specifiedES5_S5_EC1INS0_4initISt8weak_ptrINS2_15key_value_storeEESsN4mpl_5void_ESD_SD_SD_SD_SD_SD_SD_SD_SD_SD_SD_SD_EEEEPKcRKNS0_9init_baseIT_EE
   fun:_ZN11dust_server16init_module_DustEv
}
{
   <insert_a_suppression_name_here>
   Memcheck:Leak
   fun:_Znwm
   fun:_ZN5boost6python7objects20function_handle_implERKNS1_11py_functionE
   fun:_ZN5boost6python29make_instance_reduce_functionEv
   fun:_ZN5boost6python7objects10class_baseC1EPKcmPKNS0_9type_infoES4_
   fun:_ZN5boost6python6class_IN4dust8documentENS0_6detail13not_specifiedES5_S5_EC2INS0_4initISt8weak_ptrINS2_15key_value_storeEESsN4mpl_5void_ESD_SD_SD_SD_SD_SD_SD_SD_SD_SD_SD_SD_EEEEPKcRKNS0_9init_baseIT_EE
   fun:_ZN5boost6python6class_IN4dust8documentENS0_6detail13not_specifiedES5_S5_EC1INS0_4initISt8weak_ptrINS2_15key_value_storeEESsN4mpl_5void_ESD_SD_SD_SD_SD_SD_SD_SD_SD_SD_SD_SD_EEEEPKcRKNS0_9init_baseIT_EE
   fun:_ZN11dust_server16init_module_DustEv
   fun:_ZN5boost6python21handle_exception_implENS_9function0IvEE
   fun:_ZN5boost6python6detail11init_moduleEPKcPFvvE
   fun:initDust
   fun:_ZN11dust_server17PythonInitializerC2Ev
   fun:_ZN11dust_server17PythonInitializerC1Ev
}
{
   <insert_a_suppression_name_here>
   Memcheck:Leak
   fun:malloc
   fun:PyObject_Malloc
   fun:_PyObject_GC_Malloc
   fun:PyType_GenericAlloc
   obj:/usr/lib64/libpython2.7.so.1.0
   fun:PyDescr_NewGetSet
   fun:PyType_Ready
   fun:_PyObject_GenericGetAttrWithDict
   obj:/usr/lib64/libpython2.7.so.1.0
   obj:/usr/lib64/libpython2.7.so.1.0
   fun:PyObject_Call
   fun:PyObject_CallFunctionObjArgs
}
{
   <insert_a_suppression_name_here>
   Memcheck:Leak
   fun:malloc
   fun:PyObject_Malloc
   fun:_PyObject_GC_Malloc
   fun:PyType_GenericAlloc
   obj:/usr/lib64/libpython2.7.so.1.0
   fun:PyDescr_NewWrapper
   fun:PyType_Ready
   fun:_Py_ReadyTypes
   fun:Py_InitializeEx
   fun:_ZN11dust_server17PythonInitializerC2Ev
   fun:_ZN11dust_server17PythonInitializerC1Ev
   fun:__cxx_global_var_init25
}
{
   <insert_a_suppression_name_here>
   Memcheck:Leak
   fun:malloc
   fun:PyObject_Malloc
   fun:_PyObject_GC_Malloc
   fun:PyType_GenericAlloc
   obj:/usr/lib64/libpython2.7.so.1.0
   fun:PyDescr_NewWrapper
   fun:PyType_Ready
   fun:_PyExc_Init
   fun:Py_InitializeEx
   fun:_ZN11dust_server17PythonInitializerC2Ev
   fun:_ZN11dust_server17PythonInitializerC1Ev
   fun:__cxx_global_var_init25
}
{
   <insert_a_suppression_name_here>
   Memcheck:Leak
   fun:malloc
   fun:PyObject_Malloc
   fun:_PyObject_GC_Malloc
   fun:PyType_GenericAlloc
   obj:/usr/lib64/libpython2.7.so.1.0
   fun:PyDescr_NewWrapper
   fun:PyType_Ready
   fun:_PyImportHooks_Init
   fun:Py_InitializeEx
   fun:_ZN11dust_server17PythonInitializerC2Ev
   fun:_ZN11dust_server17PythonInitializerC1Ev
   fun:__cxx_global_var_init25
}
{
   <insert_a_suppression_name_here>
   Memcheck:Leak
   fun:malloc
   fun:PyObject_Malloc
   fun:PyString_FromString
   fun:PyString_InternFromString
   obj:/usr/lib64/libpython2.7.so.1.0
   fun:PyDescr_NewMember
   fun:PyType_Ready
   fun:init_sre
   obj:/usr/lib64/libpython2.7.so.1.0
   obj:/usr/lib64/libpython2.7.so.1.0
   obj:/usr/lib64/libpython2.7.so.1.0
   obj:/usr/lib64/libpython2.7.so.1.0
}
{
   <insert_a_suppression_name_here>
   Memcheck:Leak
   fun:malloc
   fun:PyObject_Malloc
   fun:PyString_FromString
   fun:PyString_InternFromString
   obj:/usr/lib64/libpython2.7.so.1.0
   fun:PyDescr_NewGetSet
   fun:PyType_Ready
   fun:_PyExc_Init
   fun:Py_InitializeEx
   fun:_ZN11dust_server17PythonInitializerC2Ev
   fun:_ZN11dust_server17PythonInitializerC1Ev
   fun:__cxx_global_var_init25
}
{
   <insert_a_suppression_name_here>
   Memcheck:Leak
   fun:malloc
   fun:PyObject_Malloc
   fun:PyString_FromString
   fun:PyString_InternFromString
   obj:/usr/lib64/libpython2.7.so.1.0
   fun:PyDescr_NewGetSet
   fun:PyType_Ready
   fun:init_sre
   obj:/usr/lib64/libpython2.7.so.1.0
   obj:/usr/lib64/libpython2.7.so.1.0
   obj:/usr/lib64/libpython2.7.so.1.0
   obj:/usr/lib64/libpython2.7.so.1.0
}
{
   <insert_a_suppression_name_here>
   Memcheck:Leak
   fun:malloc
   fun:PyObject_Malloc
   fun:PyString_FromString
   fun:PyString_InternFromString
   obj:/usr/lib64/libpython2.7.so.1.0
   fun:PyDescr_NewMember
   fun:PyType_Ready
   fun:initzipimport
   obj:/usr/lib64/libpython2.7.so.1.0
   obj:/usr/lib64/libpython2.7.so.1.0
   obj:/usr/lib64/libpython2.7.so.1.0
   obj:/usr/lib64/libpython2.7.so.1.0
}
{
   <insert_a_suppression_name_here>
   Memcheck:Leak
   fun:malloc
   fun:PyObject_Malloc
   fun:_PyObject_GC_Malloc
   fun:_PyObject_GC_New
   obj:/usr/lib64/libpython2.7.so.1.0
   fun:PyWeakref_NewRef
   obj:/usr/lib64/libpython2.7.so.1.0
   fun:PyType_Ready
   fun:_Py_ReadyTypes
   fun:Py_InitializeEx
   fun:_ZN11dust_server17PythonInitializerC2Ev
   fun:_ZN11dust_server17PythonInitializerC1Ev
}
{
   <insert_a_suppression_name_here>
   Memcheck:Leak
   fun:malloc
   fun:PyObject_Malloc
   fun:_PyObject_GC_Malloc
   fun:_PyObject_GC_New
   obj:/usr/lib64/libpython2.7.so.1.0
   fun:PyWeakref_NewRef
   obj:/usr/lib64/libpython2.7.so.1.0
   fun:PyType_Ready
   fun:PyType_Ready
   fun:_Py_ReadyTypes
   fun:Py_InitializeEx
   fun:_ZN11dust_server17PythonInitializerC2Ev
}
{
   <insert_a_suppression_name_here>
   Memcheck:Leak
   fun:malloc
   fun:PyObject_Malloc
   fun:_PyObject_GC_Malloc
   fun:_PyObject_GC_New
   obj:/usr/lib64/libpython2.7.so.1.0
   fun:PyWeakref_NewRef
   obj:/usr/lib64/libpython2.7.so.1.0
   fun:PyType_Ready
   fun:_PyExc_Init
   fun:Py_InitializeEx
   fun:_ZN11dust_server17PythonInitializerC2Ev
   fun:_ZN11dust_server17PythonInitializerC1Ev
}
{
   <insert_a_suppression_name_here>
   Memcheck:Leak
   fun:malloc
   fun:PyObject_Malloc
   fun:_PyObject_GC_Malloc
   fun:_PyObject_GC_New
   obj:/usr/lib64/libpython2.7.so.1.0
   fun:PyWeakref_NewRef
   obj:/usr/lib64/libpython2.7.so.1.0
   fun:PyType_Ready
   fun:PyStructSequence_InitType
   fun:_PyLong_Init
   fun:Py_InitializeEx
   fun:_ZN11dust_server17PythonInitializerC2Ev
}
{
   <insert_a_suppression_name_here>
   Memcheck:Leak
   fun:malloc
   fun:PyObject_Malloc
   fun:_PyObject_GC_Malloc
   fun:_PyObject_GC_New
   obj:/usr/lib64/libpython2.7.so.1.0
   fun:PyWeakref_NewRef
   obj:/usr/lib64/libpython2.7.so.1.0
   fun:PyType_Ready
   fun:PyStructSequence_InitType
   fun:Py_InitializeEx
   fun:_ZN11dust_server17PythonInitializerC2Ev
   fun:_ZN11dust_server17PythonInitializerC1Ev
}
{
   <insert_a_suppression_name_here>
   Memcheck:Leak
   fun:malloc
   fun:PyObject_Malloc
   fun:_PyObject_GC_Malloc
   fun:_PyObject_GC_New
   obj:/usr/lib64/libpython2.7.so.1.0
   fun:PyWeakref_NewRef
   obj:/usr/lib64/libpython2.7.so.1.0
   fun:PyType_Ready
   fun:_PyUnicodeUCS4_Init
   fun:Py_InitializeEx
   fun:_ZN11dust_server17PythonInitializerC2Ev
   fun:_ZN11dust_server17PythonInitializerC1Ev
}
{
   <insert_a_suppression_name_here>
   Memcheck:Leak
   fun:malloc
   fun:PyObject_Malloc
   fun:_PyObject_GC_Malloc
   fun:_PyObject_GC_New
   obj:/usr/lib64/libpython2.7.so.1.0
   fun:PyWeakref_NewRef
   obj:/usr/lib64/libpython2.7.so.1.0
   fun:PyType_Ready
   fun:PyStructSequence_InitType
   fun:_PySys_Init
   fun:Py_InitializeEx
   fun:_ZN11dust_server17PythonInitializerC2Ev
}
{
   <insert_a_suppression_name_here>
   Memcheck:Leak
   fun:malloc
   fun:PyObject_Malloc
   fun:_PyObject_GC_Malloc
   fun:_PyObject_GC_New
   obj:/usr/lib64/libpython2.7.so.1.0
   fun:PyWeakref_NewRef
   obj:/usr/lib64/libpython2.7.so.1.0
   fun:PyType_Ready
   fun:init_sre
   obj:/usr/lib64/libpython2.7.so.1.0
   obj:/usr/lib64/libpython2.7.so.1.0
   obj:/usr/lib64/libpython2.7.so.1.0
}
{
   <insert_a_suppression_name_here>
   Memcheck:Leak
   fun:malloc
   fun:PyObject_Malloc
   fun:_PyObject_GC_Malloc
   fun:_PyObject_GC_New
   obj:/usr/lib64/libpython2.7.so.1.0
   fun:PyWeakref_NewRef
   obj:/usr/lib64/libpython2.7.so.1.0
   fun:PyType_Ready
   fun:_PyObject_GenericGetAttrWithDict
   fun:PyImport_Import
   fun:PyImport_ImportModule
   fun:_PyExc_Init
}
{
   <insert_a_suppression_name_here>
   Memcheck:Leak
   fun:malloc
   fun:PyObject_Malloc
   fun:_PyObject_GC_Malloc
   fun:_PyObject_GC_New
   obj:/usr/lib64/libpython2.7.so.1.0
   fun:PyWeakref_NewRef
   obj:/usr/lib64/libpython2.7.so.1.0
   fun:PyType_Ready
   fun:_PyImportHooks_Init
   fun:Py_InitializeEx
   fun:_ZN11dust_server17PythonInitializerC2Ev
   fun:_ZN11dust_server17PythonInitializerC1Ev
}
{
   <insert_a_suppression_name_here>
   Memcheck:Leak
   fun:malloc
   fun:PyObject_Malloc
   fun:_PyObject_GC_Malloc
   fun:_PyObject_GC_New
   obj:/usr/lib64/libpython2.7.so.1.0
   fun:PyWeakref_NewRef
   obj:/usr/lib64/libpython2.7.so.1.0
   fun:PyType_Ready
   fun:initzipimport
   obj:/usr/lib64/libpython2.7.so.1.0
   obj:/usr/lib64/libpython2.7.so.1.0
   obj:/usr/lib64/libpython2.7.so.1.0
}
{
   <insert_a_suppression_name_here>
   Memcheck:Leak
   fun:malloc
   fun:PyObject_Malloc
   fun:_PyObject_GC_Malloc
   fun:_PyObject_GC_New
   obj:/usr/lib64/libpython2.7.so.1.0
   fun:PyWeakref_NewRef
   obj:/usr/lib64/libpython2.7.so.1.0
   fun:PyType_Ready
   fun:PyStructSequence_InitType
   fun:initposix
   obj:/usr/lib64/libpython2.7.so.1.0
   obj:/usr/lib64/libpython2.7.so.1.0
}
{
   <insert_a_suppression_name_here>
   Memcheck:Leak
   fun:malloc
   fun:PyObject_Malloc
   fun:_PyObject_GC_Malloc
   fun:_PyObject_GC_New
   obj:/usr/lib64/libpython2.7.so.1.0
   fun:PyWeakref_NewRef
   obj:/usr/lib64/libpython2.7.so.1.0
   fun:PyType_Ready
   fun:_PyObject_GenericGetAttrWithDict
   obj:/usr/lib64/libpython2.7.so.1.0
   fun:PyEval_EvalFrameEx
   obj:/usr/lib64/libpython2.7.so.1.0
}
{
   <insert_a_suppression_name_here>
   Memcheck:Leak
   fun:malloc
   fun:PyObject_Malloc
   fun:_PyObject_GC_Malloc
   fun:_PyObject_GC_New
   obj:/usr/lib64/libpython2.7.so.1.0
   fun:PyWeakref_NewRef
   obj:/usr/lib64/libpython2.7.so.1.0
   fun:PyType_Ready
   fun:_ZN5boost6python7objects10class_typeEv
   fun:_ZN5boost6python7objects10class_baseC1EPKcmPKNS0_9type_infoES4_
   fun:_ZN5boost6python6class_IN4dust8documentENS0_6detail13not_specifiedES5_S5_EC2INS0_4initISt8weak_ptrINS2_15key_value_storeEESsN4mpl_5void_ESD_SD_SD_SD_SD_SD_SD_SD_SD_SD_SD_SD_EEEEPKcRKNS0_9init_baseIT_EE
   fun:_ZN5boost6python6class_IN4dust8documentENS0_6detail13not_specifiedES5_S5_EC1INS0_4initISt8weak_ptrINS2_15key_value_storeEESsN4mpl_5void_ESD_SD_SD_SD_SD_SD_SD_SD_SD_SD_SD_SD_EEEEPKcRKNS0_9init_baseIT_EE
}
{
   <insert_a_suppression_name_here>
   Memcheck:Leak
   fun:malloc
   fun:PyObject_Malloc
   fun:_PyObject_GC_Malloc
   fun:_PyObject_GC_New
   obj:/usr/lib64/libpython2.7.so.1.0
   fun:PyWeakref_NewRef
   obj:/usr/lib64/libpython2.7.so.1.0
   fun:PyType_Ready
   fun:_ZN5boost6python7objects20function_handle_implERKNS1_11py_functionE
   fun:_ZN5boost6python29make_instance_reduce_functionEv
   fun:_ZN5boost6python7objects10class_baseC1EPKcmPKNS0_9type_infoES4_
   fun:_ZN5boost6python6class_IN4dust8documentENS0_6detail13not_specifiedES5_S5_EC2INS0_4initISt8weak_ptrINS2_15key_value_storeEESsN4mpl_5void_ESD_SD_SD_SD_SD_SD_SD_SD_SD_SD_SD_SD_EEEEPKcRKNS0_9init_baseIT_EE
}
{
   <insert_a_suppression_name_here>
   Memcheck:Leak
   fun:malloc
   fun:PyObject_Malloc
   fun:_PyObject_GC_Malloc
   fun:_PyObject_GC_New
   obj:/usr/lib64/libpython2.7.so.1.0
   fun:PyWeakref_NewRef
   obj:/usr/lib64/libpython2.7.so.1.0
   fun:PyType_Ready
   fun:class_setattro
   fun:PyObject_SetAttr
   fun:PyObject_SetAttrString
   fun:_ZN5boost6python3api7setattrERKNS1_6objectEPKcS4_
}
{
   <insert_a_suppression_name_here>
   Memcheck:Leak
   fun:malloc
   fun:PyObject_Malloc
   fun:_PyObject_GC_Malloc
   fun:_PyObject_GC_New
   obj:/usr/lib64/libpython2.7.so.1.0
   fun:PyWeakref_NewRef
   obj:/usr/lib64/libpython2.7.so.1.0
   fun:PyType_Ready
   fun:_PyObject_GenericGetAttrWithDict
   obj:/usr/lib64/libpython2.7.so.1.0
   obj:/usr/lib64/libpython2.7.so.1.0
   fun:PyObject_Call
}
{
   <insert_a_suppression_name_here>
   Memcheck:Leak
   fun:malloc
   fun:PyObject_Malloc
   fun:PyString_FromString
   fun:PyDict_SetItemString
   fun:Py_InitModule4_64
   fun:_PyWarnings_Init
   fun:Py_InitializeEx
   fun:_ZN11dust_server17PythonInitializerC2Ev
   fun:_ZN11dust_server17PythonInitializerC1Ev
   fun:__cxx_global_var_init25
   fun:_GLOBAL__I_a
   fun:__libc_csu_init
}
{
   <insert_a_suppression_name_here>
   Memcheck:Leak
   fun:malloc
   fun:PyObject_Malloc
   fun:PyString_FromString
   fun:PyType_Ready
   fun:PyStructSequence_InitType
   fun:_PySys_Init
   fun:Py_InitializeEx
   fun:_ZN11dust_server17PythonInitializerC2Ev
   fun:_ZN11dust_server17PythonInitializerC1Ev
   fun:__cxx_global_var_init25
   fun:_GLOBAL__I_a
   fun:__libc_csu_init
}
{
   <insert_a_suppression_name_here>
   Memcheck:Leak
   fun:malloc
   fun:PyObject_Malloc
   fun:PyString_FromString
   fun:PyString_InternFromString
   obj:/usr/lib64/libpython2.7.so.1.0
   fun:PyDescr_NewMethod
   fun:PyType_Ready
   fun:init_sre
   obj:/usr/lib64/libpython2.7.so.1.0
   obj:/usr/lib64/libpython2.7.so.1.0
   obj:/usr/lib64/libpython2.7.so.1.0
   obj:/usr/lib64/libpython2.7.so.1.0
}
{
   <insert_a_suppression_name_here>
   Memcheck:Leak
   fun:malloc
   fun:PyObject_Malloc
   fun:PyString_FromString
   fun:PyString_InternFromString
   obj:/usr/lib64/libpython2.7.so.1.0
   fun:PyDescr_NewMember
   fun:PyType_Ready
   fun:PyStructSequence_InitType
   fun:_PyLong_Init
   fun:Py_InitializeEx
   fun:_ZN11dust_server17PythonInitializerC2Ev
   fun:_ZN11dust_server17PythonInitializerC1Ev
}
{
   <insert_a_suppression_name_here>
   Memcheck:Leak
   fun:malloc
   fun:PyObject_Malloc
   fun:_PyObject_GC_Malloc
   fun:PyType_GenericAlloc
   fun:PyStaticMethod_New
   obj:/usr/lib64/libpython2.7.so.1.0
   obj:/usr/lib64/libpython2.7.so.1.0
   fun:PyObject_Call
   fun:PyObject_CallFunctionObjArgs
   fun:PyEval_EvalFrameEx
   fun:PyEval_EvalCodeEx
   fun:PyEval_EvalCode
}
{
   <insert_a_suppression_name_here>
   Memcheck:Leak
   fun:malloc
   fun:PyStructSequence_InitType
   fun:_PyLong_Init
   fun:Py_InitializeEx
   fun:_ZN11dust_server17PythonInitializerC2Ev
   fun:_ZN11dust_server17PythonInitializerC1Ev
   fun:__cxx_global_var_init25
   fun:_GLOBAL__I_a
   fun:__libc_csu_init
   fun:(below main)
}
{
   <insert_a_suppression_name_here>
   Memcheck:Leak
   fun:malloc
   fun:PyObject_Malloc
   fun:_PyObject_GC_Malloc
   fun:_PyObject_GC_New
   fun:PyFunction_New
   fun:PyEval_EvalFrameEx
   fun:PyEval_EvalCodeEx
   fun:PyEval_EvalFrameEx
   fun:PyEval_EvalCodeEx
   fun:PyEval_EvalFrameEx
   fun:PyEval_EvalFrameEx
   fun:PyEval_EvalCodeEx
}
{
   <insert_a_suppression_name_here>
   Memcheck:Leak
   fun:malloc
   fun:PyObject_Malloc
   fun:PyString_FromString
   fun:PyType_Ready
   fun:_Py_ReadyTypes
   fun:Py_InitializeEx
   fun:_ZN11dust_server17PythonInitializerC2Ev
   fun:_ZN11dust_server17PythonInitializerC1Ev
   fun:__cxx_global_var_init25
   fun:_GLOBAL__I_a
   fun:__libc_csu_init
   fun:(below main)
}
{
   <insert_a_suppression_name_here>
   Memcheck:Leak
   fun:realloc
   obj:/usr/lib64/libpython2.7.so.1.0
   obj:/usr/lib64/libpython2.7.so.1.0
   obj:/usr/lib64/libpython2.7.so.1.0
   fun:PyType_Ready
   fun:_PyExc_Init
   fun:Py_InitializeEx
   fun:_ZN11dust_server17PythonInitializerC2Ev
   fun:_ZN11dust_server17PythonInitializerC1Ev
   fun:__cxx_global_var_init25
   fun:_GLOBAL__I_a
   fun:__libc_csu_init
}
{
   <insert_a_suppression_name_here>
   Memcheck:Leak
   fun:malloc
   fun:PyObject_Malloc
   fun:_PyObject_GC_Malloc
   fun:PyType_GenericAlloc
   obj:/usr/lib64/libpython2.7.so.1.0
   fun:PyObject_Call
   fun:PyEval_EvalFrameEx
   fun:PyEval_EvalCodeEx
   obj:/usr/lib64/libpython2.7.so.1.0
   fun:PyObject_Call
   obj:/usr/lib64/libpython2.7.so.1.0
   fun:PyObject_Call
}
{
   <insert_a_suppression_name_here>
   Memcheck:Leak
   fun:malloc
   fun:PyObject_Malloc
   fun:_PyObject_GC_Malloc
   fun:_PyObject_GC_New
   fun:PyList_New
   obj:/usr/lib64/libpython2.7.so.1.0
   obj:/usr/lib64/libpython2.7.so.1.0
   fun:Py_BuildValue
   obj:/usr/lib64/libpython2.7.so.1.0
   obj:/usr/lib64/libpython2.7.so.1.0
   fun:PyType_Ready
   fun:PyType_Ready
}
{
   <insert_a_suppression_name_here>
   Memcheck:Leak
   fun:malloc
   fun:PyObject_Malloc
   fun:_PyObject_GC_Malloc
   fun:PyType_GenericAlloc
   obj:/usr/lib64/libpython2.7.so.1.0
   fun:PyDescr_NewMember
   fun:PyType_Ready
   fun:PyStructSequence_InitType
   fun:_PyLong_Init
   fun:Py_InitializeEx
   fun:_ZN11dust_server17PythonInitializerC2Ev
   fun:_ZN11dust_server17PythonInitializerC1Ev
}
{
   <insert_a_suppression_name_here>
   Memcheck:Leak
   fun:malloc
   fun:PyObject_Malloc
   fun:_PyObject_GC_Malloc
   fun:PyType_GenericAlloc
   obj:/usr/lib64/libpython2.7.so.1.0
   fun:PyDescr_NewMethod
   fun:PyType_Ready
   fun:init_sre
   obj:/usr/lib64/libpython2.7.so.1.0
   obj:/usr/lib64/libpython2.7.so.1.0
   obj:/usr/lib64/libpython2.7.so.1.0
   obj:/usr/lib64/libpython2.7.so.1.0
}
{
   <insert_a_suppression_name_here>
   Memcheck:Leak
   fun:malloc
   fun:PyObject_Malloc
   fun:_PyObject_GC_Malloc
   fun:PyType_GenericAlloc
   obj:/usr/lib64/libpython2.7.so.1.0
   fun:PyDescr_NewGetSet
   fun:PyType_Ready
   obj:/usr/lib64/libpython2.7.so.1.0
   obj:/usr/lib64/libpython2.7.so.1.0
   fun:PyObject_Call
   obj:/usr/lib64/libpython2.7.so.1.0
   fun:PyObject_CallFunction
}
{
   <insert_a_suppression_name_here>
   Memcheck:Leak
   fun:malloc
   fun:PyObject_Malloc
   fun:_PyObject_GC_Malloc
   fun:PyType_GenericAlloc
   obj:/usr/lib64/libpython2.7.so.1.0
   fun:PyDescr_NewMember
   fun:PyType_Ready
   fun:_PyObject_GenericGetAttrWithDict
   obj:/usr/lib64/libpython2.7.so.1.0
   obj:/usr/lib64/libpython2.7.so.1.0
   fun:PyObject_Call
   fun:PyObject_CallFunctionObjArgs
}
{
   <insert_a_suppression_name_here>
   Memcheck:Leak
   fun:malloc
   fun:PyObject_Malloc
   fun:PyString_FromString
   fun:PyType_Ready
   fun:_PyObject_GenericGetAttrWithDict
   fun:PyImport_Import
   fun:PyImport_ImportModule
   fun:_PyExc_Init
   fun:Py_InitializeEx
   fun:_ZN11dust_server17PythonInitializerC2Ev
   fun:_ZN11dust_server17PythonInitializerC1Ev
   fun:__cxx_global_var_init25
}
{
   <insert_a_suppression_name_here>
   Memcheck:Leak
   fun:malloc
   fun:PyObject_Malloc
   fun:_PyObject_GC_Malloc
   fun:PyType_GenericAlloc
   obj:/usr/lib64/libpython2.7.so.1.0
   fun:PyDescr_NewWrapper
   fun:PyType_Ready
   fun:_ZN5boost6python7objects10class_typeEv
   fun:_ZN5boost6python7objects10class_baseC1EPKcmPKNS0_9type_infoES4_
   fun:_ZN5boost6python6class_IN4dust8documentENS0_6detail13not_specifiedES5_S5_EC2INS0_4initISt8weak_ptrINS2_15key_value_storeEESsN4mpl_5void_ESD_SD_SD_SD_SD_SD_SD_SD_SD_SD_SD_SD_EEEEPKcRKNS0_9init_baseIT_EE
   fun:_ZN5boost6python6class_IN4dust8documentENS0_6detail13not_specifiedES5_S5_EC1INS0_4initISt8weak_ptrINS2_15key_value_storeEESsN4mpl_5void_ESD_SD_SD_SD_SD_SD_SD_SD_SD_SD_SD_SD_EEEEPKcRKNS0_9init_baseIT_EE
   fun:_ZN11dust_server16init_module_DustEv
}
{
   <insert_a_suppression_name_here>
   Memcheck:Leak
   fun:malloc
   fun:PyObject_Malloc
   fun:_PyObject_GC_Malloc
   fun:PyType_GenericAlloc
   obj:/usr/lib64/libpython2.7.so.1.0
   fun:PyDescr_NewWrapper
   fun:PyType_Ready
   fun:_ZN5boost6python7objects20function_handle_implERKNS1_11py_functionE
   fun:_ZN5boost6python29make_instance_reduce_functionEv
   fun:_ZN5boost6python7objects10class_baseC1EPKcmPKNS0_9type_infoES4_
   fun:_ZN5boost6python6class_IN4dust8documentENS0_6detail13not_specifiedES5_S5_EC2INS0_4initISt8weak_ptrINS2_15key_value_storeEESsN4mpl_5void_ESD_SD_SD_SD_SD_SD_SD_SD_SD_SD_SD_SD_EEEEPKcRKNS0_9init_baseIT_EE
   fun:_ZN5boost6python6class_IN4dust8documentENS0_6detail13not_specifiedES5_S5_EC1INS0_4initISt8weak_ptrINS2_15key_value_storeEESsN4mpl_5void_ESD_SD_SD_SD_SD_SD_SD_SD_SD_SD_SD_SD_EEEEPKcRKNS0_9init_baseIT_EE
}
{
   <insert_a_suppression_name_here>
   Memcheck:Leak
   fun:malloc
   obj:/usr/lib64/libpython2.7.so.1.0
   fun:Py_GetProgramFullPath
   fun:_PySys_Init
   fun:Py_InitializeEx
   fun:_ZN11dust_server17PythonInitializerC2Ev
   fun:_ZN11dust_server17PythonInitializerC1Ev
   fun:__cxx_global_var_init25
   fun:_GLOBAL__I_a
   fun:__libc_csu_init
   fun:(below main)
}
{
   <insert_a_suppression_name_here>
   Memcheck:Leak
   fun:malloc
   fun:PyObject_Malloc
   fun:PyString_FromString
   fun:PyType_Ready
   fun:PyStructSequence_InitType
   fun:_PyLong_Init
   fun:Py_InitializeEx
   fun:_ZN11dust_server17PythonInitializerC2Ev
   fun:_ZN11dust_server17PythonInitializerC1Ev
   fun:__cxx_global_var_init25
   fun:_GLOBAL__I_a
   fun:__libc_csu_init
}
{
   <insert_a_suppression_name_here>
   Memcheck:Leak
   fun:malloc
   fun:PyObject_Malloc
   fun:_PyObject_GC_Malloc
   fun:_PyObject_GC_New
   obj:/usr/lib64/libpython2.7.so.1.0
   fun:PyWeakref_NewRef
   obj:/usr/lib64/libpython2.7.so.1.0
   fun:PyType_Ready
   obj:/usr/lib64/libpython2.7.so.1.0
   obj:/usr/lib64/libpython2.7.so.1.0
   fun:PyObject_Call
   obj:/usr/lib64/libpython2.7.so.1.0
}
{
   <insert_a_suppression_name_here>
   Memcheck:Leak
   fun:malloc
   fun:PyObject_Malloc
   fun:_PyObject_GC_Malloc
   fun:_PyObject_GC_New
   obj:/usr/lib64/libpython2.7.so.1.0
   fun:PyWeakref_NewRef
   obj:/usr/lib64/libpython2.7.so.1.0
   fun:PyType_Ready
   obj:/usr/lib64/libpython2.7.so.1.0
   obj:/usr/lib64/libpython2.7.so.1.0
   fun:PyObject_Call
   fun:PyEval_CallObjectWithKeywords
}
{
   <insert_a_suppression_name_here>
   Memcheck:Leak
   fun:malloc
   fun:PyObject_Malloc
   fun:PyString_FromString
   fun:PyString_InternFromString
   obj:/usr/lib64/libpython2.7.so.1.0
   fun:PyDescr_NewMethod
   fun:PyType_Ready
   fun:PyType_Ready
   fun:_Py_ReadyTypes
   fun:Py_InitializeEx
   fun:_ZN11dust_server17PythonInitializerC2Ev
   fun:_ZN11dust_server17PythonInitializerC1Ev
}
{
   <insert_a_suppression_name_here>
   Memcheck:Leak
   fun:malloc
   fun:PyObject_Malloc
   fun:_PyObject_GC_Malloc
   fun:PyType_GenericAlloc
   obj:/usr/lib64/libpython2.7.so.1.0
   fun:PyDescr_NewGetSet
   fun:PyType_Ready
   fun:_PyExc_Init
   fun:Py_InitializeEx
   fun:_ZN11dust_server17PythonInitializerC2Ev
   fun:_ZN11dust_server17PythonInitializerC1Ev
   fun:__cxx_global_var_init25
}
{
   <insert_a_suppression_name_here>
   Memcheck:Leak
   fun:malloc
   fun:PyObject_Malloc
   fun:_PyObject_GC_Malloc
   fun:PyType_GenericAlloc
   obj:/usr/lib64/libpython2.7.so.1.0
   fun:PyDescr_NewGetSet
   fun:PyType_Ready
   fun:init_sre
   obj:/usr/lib64/libpython2.7.so.1.0
   obj:/usr/lib64/libpython2.7.so.1.0
   obj:/usr/lib64/libpython2.7.so.1.0
   obj:/usr/lib64/libpython2.7.so.1.0
}
{
   <insert_a_suppression_name_here>
   Memcheck:Leak
   fun:malloc
   fun:PyObject_Malloc
   fun:_PyObject_GC_Malloc
   fun:PyType_GenericAlloc
   obj:/usr/lib64/libpython2.7.so.1.0
   fun:PyDescr_NewMember
   fun:PyType_Ready
   fun:initzipimport
   obj:/usr/lib64/libpython2.7.so.1.0
   obj:/usr/lib64/libpython2.7.so.1.0
   obj:/usr/lib64/libpython2.7.so.1.0
   obj:/usr/lib64/libpython2.7.so.1.0
}
{
   <insert_a_suppression_name_here>
   Memcheck:Leak
   fun:malloc
   fun:PyObject_Malloc
   fun:_PyObject_GC_Malloc
   fun:_PyObject_GC_New
   fun:PyList_New
   obj:/usr/lib64/libpython2.7.so.1.0
   fun:PyEval_EvalFrameEx
   fun:PyEval_EvalCodeEx
   obj:/usr/lib64/libpython2.7.so.1.0
   fun:PyObject_Call
   obj:/usr/lib64/libpython2.7.so.1.0
   fun:PyObject_Call
}
{
   <insert_a_suppression_name_here>
   Memcheck:Leak
   fun:malloc
   fun:PyObject_Malloc
   fun:PyString_FromString
   fun:PyString_InternFromString
   obj:/usr/lib64/libpython2.7.so.1.0
   fun:PyDescr_NewMember
   fun:PyType_Ready
   fun:PyStructSequence_InitType
   fun:_PySys_Init
   fun:Py_InitializeEx
   fun:_ZN11dust_server17PythonInitializerC2Ev
   fun:_ZN11dust_server17PythonInitializerC1Ev
}
{
   <insert_a_suppression_name_here>
   Memcheck:Leak
   fun:malloc
   fun:realloc
   obj:/usr/lib64/libpython2.7.so.1.0
   obj:/usr/lib64/libpython2.7.so.1.0
   obj:/usr/lib64/libpython2.7.so.1.0
   fun:PyType_Ready
   obj:/usr/lib64/libpython2.7.so.1.0
   obj:/usr/lib64/libpython2.7.so.1.0
   fun:PyObject_Call
   fun:PyObject_CallFunctionObjArgs
   fun:PyEval_EvalFrameEx
   fun:PyEval_EvalCodeEx
}
{
   <insert_a_suppression_name_here>
   Memcheck:Leak
   fun:malloc
   fun:realloc
   obj:/usr/lib64/libpython2.7.so.1.0
   obj:/usr/lib64/libpython2.7.so.1.0
   obj:/usr/lib64/libpython2.7.so.1.0
   fun:PyType_Ready
   obj:/usr/lib64/libpython2.7.so.1.0
   obj:/usr/lib64/libpython2.7.so.1.0
   fun:PyEval_EvalFrameEx
   fun:PyEval_EvalCodeEx
   obj:/usr/lib64/libpython2.7.so.1.0
   fun:PyObject_Call
}
{
   <insert_a_suppression_name_here>
   Memcheck:Leak
   fun:malloc
   fun:PyStructSequence_InitType
   fun:_PySys_Init
   fun:Py_InitializeEx
   fun:_ZN11dust_server17PythonInitializerC2Ev
   fun:_ZN11dust_server17PythonInitializerC1Ev
   fun:__cxx_global_var_init25
   fun:_GLOBAL__I_a
   fun:__libc_csu_init
   fun:(below main)
}
{
   <insert_a_suppression_name_here>
   Memcheck:Leak
   fun:malloc
   fun:PyObject_Malloc
   fun:_PyObject_GC_Malloc
   fun:PyType_GenericAlloc
   obj:/usr/lib64/libpython2.7.so.1.0
   fun:PyDescr_NewWrapper
   fun:PyType_Ready
   fun:_PyUnicodeUCS4_Init
   fun:Py_InitializeEx
   fun:_ZN11dust_server17PythonInitializerC2Ev
   fun:_ZN11dust_server17PythonInitializerC1Ev
   fun:__cxx_global_var_init25
}
{
   <insert_a_suppression_name_here>
   Memcheck:Leak
   fun:malloc
   fun:PyObject_Malloc
   fun:_PyObject_GC_Malloc
   fun:PyType_GenericAlloc
   obj:/usr/lib64/libpython2.7.so.1.0
   fun:PyDescr_NewWrapper
   fun:PyType_Ready
   fun:initzipimport
   obj:/usr/lib64/libpython2.7.so.1.0
   obj:/usr/lib64/libpython2.7.so.1.0
   obj:/usr/lib64/libpython2.7.so.1.0
   obj:/usr/lib64/libpython2.7.so.1.0
}
{
   <insert_a_suppression_name_here>
   Memcheck:Leak
   fun:malloc
   fun:PyObject_Malloc
   fun:_PyObject_GC_Malloc
   fun:PyType_GenericAlloc
   obj:/usr/lib64/libpython2.7.so.1.0
   fun:PyDescr_NewWrapper
   fun:PyType_Ready
   fun:_PyObject_GenericGetAttrWithDict
   obj:/usr/lib64/libpython2.7.so.1.0
   fun:PyEval_EvalFrameEx
   obj:/usr/lib64/libpython2.7.so.1.0
   fun:PyIter_Next
}
{
   <insert_a_suppression_name_here>
   Memcheck:Leak
   fun:malloc
   fun:PyObject_Malloc
   fun:PyString_FromString
   fun:PyType_Ready
   fun:PyStructSequence_InitType
   fun:Py_InitializeEx
   fun:_ZN11dust_server17PythonInitializerC2Ev
   fun:_ZN11dust_server17PythonInitializerC1Ev
   fun:__cxx_global_var_init25
   fun:_GLOBAL__I_a
   fun:__libc_csu_init
   fun:(below main)
}
{
   <insert_a_suppression_name_here>
   Memcheck:Leak
   fun:malloc
   fun:PyObject_Malloc
   fun:_PyObject_GC_Malloc
   fun:_PyObject_GC_New
   fun:PyDict_New
   fun:PyType_Ready
   fun:_Py_ReadyTypes
   fun:Py_InitializeEx
   fun:_ZN11dust_server17PythonInitializerC2Ev
   fun:_ZN11dust_server17PythonInitializerC1Ev
   fun:__cxx_global_var_init25
   fun:_GLOBAL__I_a
}
{
   <insert_a_suppression_name_here>
   Memcheck:Leak
   fun:malloc
   fun:PyObject_Malloc
   fun:_PyObject_GC_Malloc
   fun:_PyObject_GC_New
   fun:PyDict_New
   fun:PyType_Ready
   fun:PyType_Ready
   fun:_Py_ReadyTypes
   fun:Py_InitializeEx
   fun:_ZN11dust_server17PythonInitializerC2Ev
   fun:_ZN11dust_server17PythonInitializerC1Ev
   fun:__cxx_global_var_init25
}
{
   <insert_a_suppression_name_here>
   Memcheck:Leak
   fun:malloc
   fun:PyObject_Malloc
   fun:_PyObject_GC_Malloc
   fun:_PyObject_GC_New
   fun:PyDict_New
   fun:PyType_Ready
   fun:_PyExc_Init
   fun:Py_InitializeEx
   fun:_ZN11dust_server17PythonInitializerC2Ev
   fun:_ZN11dust_server17PythonInitializerC1Ev
   fun:__cxx_global_var_init25
   fun:_GLOBAL__I_a
}
{
   <insert_a_suppression_name_here>
   Memcheck:Leak
   fun:malloc
   fun:PyObject_Malloc
   fun:_PyObject_GC_Malloc
   fun:_PyObject_GC_New
   fun:PyDict_New
   fun:PyType_Ready
   fun:PyStructSequence_InitType
   fun:_PyLong_Init
   fun:Py_InitializeEx
   fun:_ZN11dust_server17PythonInitializerC2Ev
   fun:_ZN11dust_server17PythonInitializerC1Ev
   fun:__cxx_global_var_init25
}
{
   <insert_a_suppression_name_here>
   Memcheck:Leak
   fun:malloc
   fun:PyObject_Malloc
   fun:_PyObject_GC_Malloc
   fun:_PyObject_GC_New
   fun:PyDict_New
   fun:PyType_Ready
   fun:PyStructSequence_InitType
   fun:Py_InitializeEx
   fun:_ZN11dust_server17PythonInitializerC2Ev
   fun:_ZN11dust_server17PythonInitializerC1Ev
   fun:__cxx_global_var_init25
   fun:_GLOBAL__I_a
}
{
   <insert_a_suppression_name_here>
   Memcheck:Leak
   fun:malloc
   fun:PyObject_Malloc
   fun:_PyObject_GC_Malloc
   fun:_PyObject_GC_New
   fun:PyDict_New
   fun:PyType_Ready
   fun:_PyUnicodeUCS4_Init
   fun:Py_InitializeEx
   fun:_ZN11dust_server17PythonInitializerC2Ev
   fun:_ZN11dust_server17PythonInitializerC1Ev
   fun:__cxx_global_var_init25
   fun:_GLOBAL__I_a
}
{
   <insert_a_suppression_name_here>
   Memcheck:Leak
   fun:malloc
   fun:PyObject_Malloc
   fun:_PyObject_GC_Malloc
   fun:_PyObject_GC_New
   fun:PyDict_New
   fun:PyModule_New
   fun:PyImport_AddModule
   fun:Py_InitModule4_64
   fun:_PyBuiltin_Init
   fun:Py_InitializeEx
   fun:_ZN11dust_server17PythonInitializerC2Ev
   fun:_ZN11dust_server17PythonInitializerC1Ev
}
{
   <insert_a_suppression_name_here>
   Memcheck:Leak
   fun:malloc
   fun:PyObject_Malloc
   fun:_PyObject_GC_Malloc
   fun:_PyObject_GC_New
   fun:PyDict_New
   fun:PyType_Ready
   fun:PyStructSequence_InitType
   fun:_PySys_Init
   fun:Py_InitializeEx
   fun:_ZN11dust_server17PythonInitializerC2Ev
   fun:_ZN11dust_server17PythonInitializerC1Ev
   fun:__cxx_global_var_init25
}
{
   <insert_a_suppression_name_here>
   Memcheck:Leak
   fun:malloc
   fun:PyObject_Malloc
   fun:_PyObject_GC_Malloc
   fun:_PyObject_GC_New
   fun:PyDict_New
   fun:PyType_Ready
   fun:init_sre
   obj:/usr/lib64/libpython2.7.so.1.0
   obj:/usr/lib64/libpython2.7.so.1.0
   obj:/usr/lib64/libpython2.7.so.1.0
   obj:/usr/lib64/libpython2.7.so.1.0
   fun:PyImport_ImportModuleLevel
}
{
   <insert_a_suppression_name_here>
   Memcheck:Leak
   fun:malloc
   fun:PyObject_Malloc
   fun:_PyObject_GC_Malloc
   fun:_PyObject_GC_New
   fun:PyDict_New
   fun:PyType_Ready
   fun:_PyObject_GenericGetAttrWithDict
   fun:PyImport_Import
   fun:PyImport_ImportModule
   fun:_PyExc_Init
   fun:Py_InitializeEx
   fun:_ZN11dust_server17PythonInitializerC2Ev
}
{
   <insert_a_suppression_name_here>
   Memcheck:Leak
   fun:malloc
   fun:PyObject_Malloc
   fun:_PyObject_GC_Malloc
   fun:_PyObject_GC_New
   fun:PyDict_New
   fun:PyType_Ready
   fun:_PyImportHooks_Init
   fun:Py_InitializeEx
   fun:_ZN11dust_server17PythonInitializerC2Ev
   fun:_ZN11dust_server17PythonInitializerC1Ev
   fun:__cxx_global_var_init25
   fun:_GLOBAL__I_a
}
{
   <insert_a_suppression_name_here>
   Memcheck:Leak
   fun:malloc
   fun:PyObject_Malloc
   fun:_PyObject_GC_Malloc
   fun:_PyObject_GC_New
   fun:PyDict_New
   fun:PyType_Ready
   fun:initzipimport
   obj:/usr/lib64/libpython2.7.so.1.0
   obj:/usr/lib64/libpython2.7.so.1.0
   obj:/usr/lib64/libpython2.7.so.1.0
   obj:/usr/lib64/libpython2.7.so.1.0
   fun:PyImport_ImportModuleLevel
}
{
   <insert_a_suppression_name_here>
   Memcheck:Leak
   fun:malloc
   fun:PyObject_Malloc
   fun:_PyObject_GC_Malloc
   fun:_PyObject_GC_New
   fun:PyDict_New
   fun:PyType_Ready
   fun:PyStructSequence_InitType
   fun:initposix
   obj:/usr/lib64/libpython2.7.so.1.0
   obj:/usr/lib64/libpython2.7.so.1.0
   obj:/usr/lib64/libpython2.7.so.1.0
   obj:/usr/lib64/libpython2.7.so.1.0
}
{
   <insert_a_suppression_name_here>
   Memcheck:Leak
   fun:malloc
   fun:PyObject_Malloc
   fun:_PyObject_GC_Malloc
   fun:_PyObject_GC_New
   fun:PyDict_New
   fun:PyFrame_New
   fun:PyEval_EvalCodeEx
   fun:PyEval_EvalFrameEx
   fun:PyEval_EvalCodeEx
   fun:PyEval_EvalCode
   fun:PyImport_ExecCodeModuleEx
   obj:/usr/lib64/libpython2.7.so.1.0
}
{
   <insert_a_suppression_name_here>
   Memcheck:Leak
   fun:malloc
   fun:PyObject_Malloc
   fun:_PyObject_GC_Malloc
   fun:_PyObject_GC_New
   fun:PyDict_New
   fun:PyInstance_NewRaw
   fun:PyInstance_New
   fun:PyObject_Call
   fun:PyEval_EvalFrameEx
   fun:PyEval_EvalCodeEx
   fun:PyEval_EvalCode
   fun:PyImport_ExecCodeModuleEx
}
{
   <insert_a_suppression_name_here>
   Memcheck:Leak
   fun:malloc
   fun:PyObject_Malloc
   fun:_PyObject_GC_Malloc
   fun:_PyObject_GC_New
   fun:PyDict_New
   fun:PyType_Ready
   fun:_PyObject_GenericGetAttrWithDict
   obj:/usr/lib64/libpython2.7.so.1.0
   fun:PyEval_EvalFrameEx
   obj:/usr/lib64/libpython2.7.so.1.0
   fun:PyIter_Next
   obj:/usr/lib64/libpython2.7.so.1.0
}
{
   <insert_a_suppression_name_here>
   Memcheck:Leak
   fun:malloc
   fun:PyObject_Malloc
   fun:_PyObject_GC_Malloc
   fun:_PyObject_GC_New
   fun:PyDict_New
   fun:PySymtable_Build
   fun:PyAST_Compile
   obj:/usr/lib64/libpython2.7.so.1.0
   fun:PyRun_StringFlags
   fun:PyEval_EvalFrameEx
   fun:PyEval_EvalCodeEx
   fun:PyEval_EvalFrameEx
}
{
   <insert_a_suppression_name_here>
   Memcheck:Leak
   fun:malloc
   fun:PyObject_Malloc
   fun:_PyObject_GC_Malloc
   fun:_PyObject_GC_New
   fun:PyDict_New
   obj:/usr/lib64/libpython2.7.so.1.0
   fun:PySymtable_Build
   fun:PyAST_Compile
   obj:/usr/lib64/libpython2.7.so.1.0
   fun:PyRun_StringFlags
   fun:PyEval_EvalFrameEx
   fun:PyEval_EvalCodeEx
}
{
   <insert_a_suppression_name_here>
   Memcheck:Leak
   fun:malloc
   fun:PyObject_Malloc
   fun:_PyObject_GC_Malloc
   fun:_PyObject_GC_New
   fun:PyDict_New
   fun:PyModule_New
   fun:PyImport_AddModule
   fun:PyImport_ExecCodeModuleEx
   obj:/usr/lib64/libpython2.7.so.1.0
   obj:/usr/lib64/libpython2.7.so.1.0
   obj:/usr/lib64/libpython2.7.so.1.0
   fun:PyImport_ImportModuleLevel
}
{
   <insert_a_suppression_name_here>
   Memcheck:Leak
   fun:malloc
   fun:PyObject_Malloc
   fun:_PyObject_GC_Malloc
   fun:_PyObject_GC_New
   fun:PyDict_New
   fun:PyType_Ready
   fun:_ZN5boost6python7objects10class_typeEv
   fun:_ZN5boost6python7objects10class_baseC1EPKcmPKNS0_9type_infoES4_
   fun:_ZN5boost6python6class_IN4dust8documentENS0_6detail13not_specifiedES5_S5_EC2INS0_4initISt8weak_ptrINS2_15key_value_storeEESsN4mpl_5void_ESD_SD_SD_SD_SD_SD_SD_SD_SD_SD_SD_SD_EEEEPKcRKNS0_9init_baseIT_EE
   fun:_ZN5boost6python6class_IN4dust8documentENS0_6detail13not_specifiedES5_S5_EC1INS0_4initISt8weak_ptrINS2_15key_value_storeEESsN4mpl_5void_ESD_SD_SD_SD_SD_SD_SD_SD_SD_SD_SD_SD_EEEEPKcRKNS0_9init_baseIT_EE
   fun:_ZN11dust_server16init_module_DustEv
   fun:_ZN5boost6python21handle_exception_implENS_9function0IvEE
}
{
   <insert_a_suppression_name_here>
   Memcheck:Leak
   fun:malloc
   fun:PyObject_Malloc
   fun:_PyObject_GC_Malloc
   fun:_PyObject_GC_New
   fun:PyDict_New
   fun:PyType_Ready
   fun:_ZN5boost6python7objects20function_handle_implERKNS1_11py_functionE
   fun:_ZN5boost6python29make_instance_reduce_functionEv
   fun:_ZN5boost6python7objects10class_baseC1EPKcmPKNS0_9type_infoES4_
   fun:_ZN5boost6python6class_IN4dust8documentENS0_6detail13not_specifiedES5_S5_EC2INS0_4initISt8weak_ptrINS2_15key_value_storeEESsN4mpl_5void_ESD_SD_SD_SD_SD_SD_SD_SD_SD_SD_SD_SD_EEEEPKcRKNS0_9init_baseIT_EE
   fun:_ZN5boost6python6class_IN4dust8documentENS0_6detail13not_specifiedES5_S5_EC1INS0_4initISt8weak_ptrINS2_15key_value_storeEESsN4mpl_5void_ESD_SD_SD_SD_SD_SD_SD_SD_SD_SD_SD_SD_EEEEPKcRKNS0_9init_baseIT_EE
   fun:_ZN11dust_server16init_module_DustEv
}
{
   <insert_a_suppression_name_here>
   Memcheck:Leak
   fun:malloc
   fun:PyObject_Malloc
   fun:_PyObject_GC_Malloc
   fun:_PyObject_GC_New
   fun:PyDict_New
   fun:PyType_Ready
   fun:class_setattro
   fun:PyObject_SetAttr
   fun:PyObject_SetAttrString
   fun:_ZN5boost6python3api7setattrERKNS1_6objectEPKcS4_
   fun:_ZN5boost6python7objects10class_baseC1EPKcmPKNS0_9type_infoES4_
   fun:_ZN5boost6python6class_IN4dust8documentENS0_6detail13not_specifiedES5_S5_EC2INS0_4initISt8weak_ptrINS2_15key_value_storeEESsN4mpl_5void_ESD_SD_SD_SD_SD_SD_SD_SD_SD_SD_SD_SD_EEEEPKcRKNS0_9init_baseIT_EE
}
{
   <insert_a_suppression_name_here>
   Memcheck:Leak
   fun:malloc
   fun:PyObject_Malloc
   fun:_PyObject_GC_Malloc
   fun:_PyObject_GC_New
   fun:PyDict_New
   fun:PyType_Ready
   fun:_PyObject_GenericGetAttrWithDict
   obj:/usr/lib64/libpython2.7.so.1.0
   obj:/usr/lib64/libpython2.7.so.1.0
   fun:PyObject_Call
   fun:PyObject_CallFunctionObjArgs
   fun:PyObject_IsInstance
}
{
   <insert_a_suppression_name_here>
   Memcheck:Leak
   fun:malloc
   fun:PyObject_Malloc
   fun:PyString_FromString
   fun:PyString_InternFromString
   obj:/usr/lib64/libpython2.7.so.1.0
   fun:PyDescr_NewMethod
   fun:PyType_Ready
   fun:initzipimport
   obj:/usr/lib64/libpython2.7.so.1.0
   obj:/usr/lib64/libpython2.7.so.1.0
   obj:/usr/lib64/libpython2.7.so.1.0
   obj:/usr/lib64/libpython2.7.so.1.0
}
{
   <insert_a_suppression_name_here>
   Memcheck:Leak
   fun:malloc
   fun:PyObject_Malloc
   fun:_PyObject_GC_Malloc
   fun:PyType_GenericAlloc
   obj:/usr/lib64/libpython2.7.so.1.0
   fun:PyDescr_NewMethod
   fun:PyType_Ready
   fun:PyType_Ready
   fun:_Py_ReadyTypes
   fun:Py_InitializeEx
   fun:_ZN11dust_server17PythonInitializerC2Ev
   fun:_ZN11dust_server17PythonInitializerC1Ev
}
{
   <insert_a_suppression_name_here>
   Memcheck:Leak
   fun:malloc
   fun:PyObject_Malloc
   fun:_PyObject_GC_Malloc
   fun:PyType_GenericAlloc
   obj:/usr/lib64/libpython2.7.so.1.0
   fun:PyDescr_NewWrapper
   fun:PyType_Ready
   fun:class_setattro
   fun:PyObject_SetAttr
   fun:PyObject_SetAttrString
   fun:_ZN5boost6python3api7setattrERKNS1_6objectEPKcS4_
   fun:_ZN5boost6python7objects10class_baseC1EPKcmPKNS0_9type_infoES4_
}
{
   <insert_a_suppression_name_here>
   Memcheck:Leak
   fun:malloc
   fun:PyObject_Malloc
   fun:_PyObject_GC_Malloc
   fun:PyType_GenericAlloc
   obj:/usr/lib64/libpython2.7.so.1.0
   fun:PyDescr_NewWrapper
   fun:PyType_Ready
   fun:_PyObject_GenericGetAttrWithDict
   obj:/usr/lib64/libpython2.7.so.1.0
   obj:/usr/lib64/libpython2.7.so.1.0
   fun:PyObject_Call
   fun:PyObject_CallFunctionObjArgs
}
{
   <insert_a_suppression_name_here>
   Memcheck:Leak
   fun:malloc
   fun:PyObject_Malloc
   fun:PyString_FromString
   fun:PyType_Ready
   fun:PyStructSequence_InitType
   fun:initposix
   obj:/usr/lib64/libpython2.7.so.1.0
   obj:/usr/lib64/libpython2.7.so.1.0
   obj:/usr/lib64/libpython2.7.so.1.0
   obj:/usr/lib64/libpython2.7.so.1.0
   fun:PyImport_ImportModuleLevel
   obj:/usr/lib64/libpython2.7.so.1.0
}
{
   <insert_a_suppression_name_here>
   Memcheck:Leak
   fun:malloc
   fun:PyObject_Malloc
   fun:_PyObject_GC_Malloc
   fun:PyType_GenericAlloc
   obj:/usr/lib64/libpython2.7.so.1.0
   fun:PyDescr_NewMember
   fun:PyType_Ready
   fun:PyStructSequence_InitType
   fun:_PySys_Init
   fun:Py_InitializeEx
   fun:_ZN11dust_server17PythonInitializerC2Ev
   fun:_ZN11dust_server17PythonInitializerC1Ev
}
{
   <insert_a_suppression_name_here>
   Memcheck:Leak
   fun:malloc
   fun:PyObject_Malloc
   fun:_PyObject_GC_Malloc
   fun:PyType_GenericAlloc
   obj:/usr/lib64/libpython2.7.so.1.0
   fun:PyDescr_NewWrapper
   fun:PyType_Ready
   fun:_PyObject_GenericGetAttrWithDict
   fun:PyImport_Import
   fun:PyImport_ImportModule
   fun:_PyExc_Init
   fun:Py_InitializeEx
}
{
   <insert_a_suppression_name_here>
   Memcheck:Leak
   fun:malloc
   fun:PyStructSequence_InitType
   fun:initposix
   obj:/usr/lib64/libpython2.7.so.1.0
   obj:/usr/lib64/libpython2.7.so.1.0
   obj:/usr/lib64/libpython2.7.so.1.0
   obj:/usr/lib64/libpython2.7.so.1.0
   fun:PyImport_ImportModuleLevel
   obj:/usr/lib64/libpython2.7.so.1.0
   fun:PyObject_Call
   fun:PyEval_CallObjectWithKeywords
   fun:PyEval_EvalFrameEx
}
{
   <insert_a_suppression_name_here>
   Memcheck:Leak
   fun:malloc
   fun:PyObject_Malloc
   fun:_PyObject_GC_Malloc
   fun:PyType_GenericAlloc
   obj:/usr/lib64/libpython2.7.so.1.0
   obj:/usr/lib64/libpython2.7.so.1.0
   fun:PyObject_Call
   fun:PyEval_EvalFrameEx
   fun:PyEval_EvalFrameEx
   fun:PyEval_EvalCodeEx
   obj:/usr/lib64/libpython2.7.so.1.0
   fun:PyObject_Call
}
{
   <insert_a_suppression_name_here>
   Memcheck:Leak
   fun:malloc
   fun:PyObject_Malloc
   fun:PyString_FromString
   fun:PyString_InternFromString
   obj:/usr/lib64/libpython2.7.so.1.0
   fun:PyDescr_NewMember
   fun:PyType_Ready
   fun:PyStructSequence_InitType
   fun:initposix
   obj:/usr/lib64/libpython2.7.so.1.0
   obj:/usr/lib64/libpython2.7.so.1.0
   obj:/usr/lib64/libpython2.7.so.1.0
}
{
   <insert_a_suppression_name_here>
   Memcheck:Leak
   fun:malloc
   fun:PyObject_Malloc
   fun:PyString_FromString
   fun:PyString_InternFromString
   obj:/usr/lib64/libpython2.7.so.1.0
   fun:PyDescr_NewMember
   fun:PyType_Ready
   fun:PyStructSequence_InitType
   fun:Py_InitializeEx
   fun:_ZN11dust_server17PythonInitializerC2Ev
   fun:_ZN11dust_server17PythonInitializerC1Ev
   fun:__cxx_global_var_init25
}
{
   <insert_a_suppression_name_here>
   Memcheck:Leak
   fun:malloc
   fun:PyStructSequence_InitType
   fun:Py_InitializeEx
   fun:_ZN11dust_server17PythonInitializerC2Ev
   fun:_ZN11dust_server17PythonInitializerC1Ev
   fun:__cxx_global_var_init25
   fun:_GLOBAL__I_a
   fun:__libc_csu_init
   fun:(below main)
}
{
   <insert_a_suppression_name_here>
   Memcheck:Leak
   fun:malloc
   fun:PyObject_Malloc
   fun:_PyObject_GC_Malloc
   fun:PyType_GenericAlloc
   obj:/usr/lib64/libpython2.7.so.1.0
   fun:PyDescr_NewMethod
   fun:PyType_Ready
   fun:initzipimport
   obj:/usr/lib64/libpython2.7.so.1.0
   obj:/usr/lib64/libpython2.7.so.1.0
   obj:/usr/lib64/libpython2.7.so.1.0
   obj:/usr/lib64/libpython2.7.so.1.0
}
{
   <insert_a_suppression_name_here>
   Memcheck:Leak
   fun:malloc
   fun:PyObject_Malloc
   fun:_PyObject_GC_Malloc
   fun:_PyObject_GC_New
   fun:PyList_New
   obj:/usr/lib64/libpython2.7.so.1.0
   obj:/usr/lib64/libpython2.7.so.1.0
   fun:Py_BuildValue
   obj:/usr/lib64/libpython2.7.so.1.0
   obj:/usr/lib64/libpython2.7.so.1.0
   fun:PyType_Ready
   obj:/usr/lib64/libpython2.7.so.1.0
}
{
   <insert_a_suppression_name_here>
   Memcheck:Leak
   fun:malloc
   fun:PyObject_Malloc
   fun:_PyObject_GC_Malloc
   fun:PyType_GenericAlloc
   obj:/usr/lib64/libpython2.7.so.1.0
   fun:PyDescr_NewGetSet
   fun:PyType_Ready
   fun:_ZN5boost6python7objects20function_handle_implERKNS1_11py_functionE
   fun:_ZN5boost6python29make_instance_reduce_functionEv
   fun:_ZN5boost6python7objects10class_baseC1EPKcmPKNS0_9type_infoES4_
   fun:_ZN5boost6python6class_IN4dust8documentENS0_6detail13not_specifiedES5_S5_EC2INS0_4initISt8weak_ptrINS2_15key_value_storeEESsN4mpl_5void_ESD_SD_SD_SD_SD_SD_SD_SD_SD_SD_SD_SD_EEEEPKcRKNS0_9init_baseIT_EE
   fun:_ZN5boost6python6class_IN4dust8documentENS0_6detail13not_specifiedES5_S5_EC1INS0_4initISt8weak_ptrINS2_15key_value_storeEESsN4mpl_5void_ESD_SD_SD_SD_SD_SD_SD_SD_SD_SD_SD_SD_EEEEPKcRKNS0_9init_baseIT_EE
}
{
   <insert_a_suppression_name_here>
   Memcheck:Leak
   fun:malloc
   fun:PyObject_Malloc
   fun:_PyObject_GC_Malloc
   fun:PyType_GenericAlloc
   obj:/usr/lib64/libpython2.7.so.1.0
   fun:PyObject_Call
   fun:PyEval_EvalFrameEx
   fun:PyEval_EvalCodeEx
   fun:PyEval_EvalFrameEx
   fun:PyEval_EvalCodeEx
   fun:PyEval_EvalCode
   fun:PyImport_ExecCodeModuleEx
}
{
   <insert_a_suppression_name_here>
   Memcheck:Leak
   fun:malloc
   fun:PyObject_Malloc
   fun:PyString_FromString
   fun:PyType_Ready
   fun:initzipimport
   obj:/usr/lib64/libpython2.7.so.1.0
   obj:/usr/lib64/libpython2.7.so.1.0
   obj:/usr/lib64/libpython2.7.so.1.0
   obj:/usr/lib64/libpython2.7.so.1.0
   fun:PyImport_ImportModuleLevel
   obj:/usr/lib64/libpython2.7.so.1.0
   fun:PyObject_Call
}
{
   <insert_a_suppression_name_here>
   Memcheck:Leak
   fun:malloc
   fun:PyObject_Malloc
   fun:_PyObject_GC_Malloc
   fun:_PyObject_GC_New
   fun:PyDict_New
   fun:PyDict_Copy
   obj:/usr/lib64/libpython2.7.so.1.0
   obj:/usr/lib64/libpython2.7.so.1.0
   fun:PyObject_Call
   obj:/usr/lib64/libpython2.7.so.1.0
   fun:PyObject_CallFunction
   fun:PyErr_NewException
}
{
   <insert_a_suppression_name_here>
   Memcheck:Leak
   fun:malloc
   fun:PyObject_Malloc
   fun:_PyObject_GC_Malloc
   fun:PyType_GenericAlloc
   obj:/usr/lib64/libpython2.7.so.1.0
   fun:PyDescr_NewWrapper
   fun:PyType_Ready
   fun:PyType_Ready
   fun:_Py_ReadyTypes
   fun:Py_InitializeEx
   fun:_ZN11dust_server17PythonInitializerC2Ev
   fun:_ZN11dust_server17PythonInitializerC1Ev
}
{
   <insert_a_suppression_name_here>
   Memcheck:Leak
   fun:malloc
   fun:PyObject_Malloc
   fun:PyString_FromString
   fun:PyType_Ready
   fun:_PyObject_GenericGetAttrWithDict
   obj:/usr/lib64/libpython2.7.so.1.0
   fun:PyEval_EvalFrameEx
   obj:/usr/lib64/libpython2.7.so.1.0
   fun:PyIter_Next
   obj:/usr/lib64/libpython2.7.so.1.0
   obj:/usr/lib64/libpython2.7.so.1.0
   obj:/usr/lib64/libpython2.7.so.1.0
}
{
   <insert_a_suppression_name_here>
   Memcheck:Leak
   fun:realloc
   obj:/usr/lib64/libpython2.7.so.1.0
   obj:/usr/lib64/libpython2.7.so.1.0
   obj:/usr/lib64/libpython2.7.so.1.0
   fun:PyType_Ready
   fun:init_sre
   obj:/usr/lib64/libpython2.7.so.1.0
   obj:/usr/lib64/libpython2.7.so.1.0
   obj:/usr/lib64/libpython2.7.so.1.0
   obj:/usr/lib64/libpython2.7.so.1.0
   fun:PyImport_ImportModuleLevel
   obj:/usr/lib64/libpython2.7.so.1.0
}
{
   <insert_a_suppression_name_here>
   Memcheck:Leak
   fun:malloc
   fun:PyObject_Malloc
   fun:_PyObject_GC_Malloc
   fun:PyType_GenericAlloc
   obj:/usr/lib64/libpython2.7.so.1.0
   fun:PyDescr_NewMember
   fun:PyType_Ready
   fun:PyStructSequence_InitType
   fun:initposix
   obj:/usr/lib64/libpython2.7.so.1.0
   obj:/usr/lib64/libpython2.7.so.1.0
   obj:/usr/lib64/libpython2.7.so.1.0
}
{
   <insert_a_suppression_name_here>
   Memcheck:Leak
   fun:malloc
   fun:PyObject_Malloc
   fun:_PyObject_GC_Malloc
   fun:PyType_GenericAlloc
   obj:/usr/lib64/libpython2.7.so.1.0
   fun:PyDescr_NewGetSet
   fun:PyType_Ready
   obj:/usr/lib64/libpython2.7.so.1.0
   obj:/usr/lib64/libpython2.7.so.1.0
   fun:PyEval_EvalFrameEx
   fun:PyEval_EvalCodeEx
   obj:/usr/lib64/libpython2.7.so.1.0
}
{
   <insert_a_suppression_name_here>
   Memcheck:Leak
   fun:malloc
   obj:/usr/lib64/libpython2.7.so.1.0
   fun:PyType_Ready
   fun:PyType_Ready
   fun:_Py_ReadyTypes
   fun:Py_InitializeEx
   fun:_ZN11dust_server17PythonInitializerC2Ev
   fun:_ZN11dust_server17PythonInitializerC1Ev
   fun:__cxx_global_var_init25
   fun:_GLOBAL__I_a
   fun:__libc_csu_init
   fun:(below main)
}
{
   <insert_a_suppression_name_here>
   Memcheck:Leak
   fun:malloc
   obj:/usr/lib64/libpython2.7.so.1.0
   fun:PyType_Ready
   fun:_Py_ReadyTypes
   fun:Py_InitializeEx
   fun:_ZN11dust_server17PythonInitializerC2Ev
   fun:_ZN11dust_server17PythonInitializerC1Ev
   fun:__cxx_global_var_init25
   fun:_GLOBAL__I_a
   fun:__libc_csu_init
   fun:(below main)
}
{
   <insert_a_suppression_name_here>
   Memcheck:Leak
   fun:malloc
   obj:/usr/lib64/libpython2.7.so.1.0
   fun:PyDict_SetItemString
   fun:PyType_Ready
   fun:_Py_ReadyTypes
   fun:Py_InitializeEx
   fun:_ZN11dust_server17PythonInitializerC2Ev
   fun:_ZN11dust_server17PythonInitializerC1Ev
   fun:__cxx_global_var_init25
   fun:_GLOBAL__I_a
   fun:__libc_csu_init
   fun:(below main)
}
{
   <insert_a_suppression_name_here>
   Memcheck:Leak
   fun:malloc
   obj:/usr/lib64/libpython2.7.so.1.0
   fun:PyDict_SetItemString
   fun:PyType_Ready
   fun:_PyExc_Init
   fun:Py_InitializeEx
   fun:_ZN11dust_server17PythonInitializerC2Ev
   fun:_ZN11dust_server17PythonInitializerC1Ev
   fun:__cxx_global_var_init25
   fun:_GLOBAL__I_a
   fun:__libc_csu_init
   fun:(below main)
}
{
   <insert_a_suppression_name_here>
   Memcheck:Leak
   fun:malloc
   obj:/usr/lib64/libpython2.7.so.1.0
   fun:PyType_Ready
   fun:_PyExc_Init
   fun:Py_InitializeEx
   fun:_ZN11dust_server17PythonInitializerC2Ev
   fun:_ZN11dust_server17PythonInitializerC1Ev
   fun:__cxx_global_var_init25
   fun:_GLOBAL__I_a
   fun:__libc_csu_init
   fun:(below main)
}
{
   <insert_a_suppression_name_here>
   Memcheck:Leak
   fun:malloc
   obj:/usr/lib64/libpython2.7.so.1.0
   fun:PyDict_SetItemString
   fun:PyType_Ready
   fun:init_sre
   obj:/usr/lib64/libpython2.7.so.1.0
   obj:/usr/lib64/libpython2.7.so.1.0
   obj:/usr/lib64/libpython2.7.so.1.0
   obj:/usr/lib64/libpython2.7.so.1.0
   fun:PyImport_ImportModuleLevel
   obj:/usr/lib64/libpython2.7.so.1.0
   fun:PyObject_Call
}
{
   <insert_a_suppression_name_here>
   Memcheck:Leak
   fun:malloc
   obj:/usr/lib64/libpython2.7.so.1.0
   fun:PyDict_SetItemString
   fun:PyType_Ready
   fun:_PyObject_GenericGetAttrWithDict
   fun:PyImport_Import
   fun:PyImport_ImportModule
   fun:_PyExc_Init
   fun:Py_InitializeEx
   fun:_ZN11dust_server17PythonInitializerC2Ev
   fun:_ZN11dust_server17PythonInitializerC1Ev
   fun:__cxx_global_var_init25
}
{
   <insert_a_suppression_name_here>
   Memcheck:Leak
   fun:malloc
   obj:/usr/lib64/libpython2.7.so.1.0
   fun:PyDict_SetItemString
   fun:PyType_Ready
   fun:initzipimport
   obj:/usr/lib64/libpython2.7.so.1.0
   obj:/usr/lib64/libpython2.7.so.1.0
   obj:/usr/lib64/libpython2.7.so.1.0
   obj:/usr/lib64/libpython2.7.so.1.0
   fun:PyImport_ImportModuleLevel
   obj:/usr/lib64/libpython2.7.so.1.0
   fun:PyObject_Call
}
{
   <insert_a_suppression_name_here>
   Memcheck:Leak
   fun:malloc
   obj:/usr/lib64/libpython2.7.so.1.0
   fun:PyDict_SetItemString
   fun:PyType_Ready
   fun:_PyObject_GenericGetAttrWithDict
   obj:/usr/lib64/libpython2.7.so.1.0
   fun:PyEval_EvalFrameEx
   obj:/usr/lib64/libpython2.7.so.1.0
   fun:PyIter_Next
   obj:/usr/lib64/libpython2.7.so.1.0
   obj:/usr/lib64/libpython2.7.so.1.0
   obj:/usr/lib64/libpython2.7.so.1.0
}
{
   <insert_a_suppression_name_here>
   Memcheck:Leak
   fun:malloc
   obj:/usr/lib64/libpython2.7.so.1.0
   fun:_PyObject_GenericSetAttrWithDict
   obj:/usr/lib64/libpython2.7.so.1.0
   fun:PyObject_SetAttr
   fun:PyEval_EvalFrameEx
   fun:PyEval_EvalCodeEx
   obj:/usr/lib64/libpython2.7.so.1.0
   fun:PyObject_Call
   obj:/usr/lib64/libpython2.7.so.1.0
   obj:/usr/lib64/libpython2.7.so.1.0
   fun:PyObject_Call
}
{
   <insert_a_suppression_name_here>
   Memcheck:Leak
   fun:malloc
   obj:/usr/lib64/libpython2.7.so.1.0
   fun:PyDict_SetItemString
   fun:PyType_Ready
   obj:/usr/lib64/libpython2.7.so.1.0
   obj:/usr/lib64/libpython2.7.so.1.0
   fun:PyObject_Call
   fun:PyObject_CallFunctionObjArgs
   fun:PyEval_EvalFrameEx
   fun:PyEval_EvalCodeEx
   fun:PyEval_EvalFrameEx
   fun:PyEval_EvalFrameEx
}
{
   <insert_a_suppression_name_here>
   Memcheck:Leak
   fun:malloc
   obj:/usr/lib64/libpython2.7.so.1.0
   fun:PyEval_EvalFrameEx
   fun:PyEval_EvalCodeEx
   fun:PyEval_EvalCode
   fun:PyImport_ExecCodeModuleEx
   obj:/usr/lib64/libpython2.7.so.1.0
   obj:/usr/lib64/libpython2.7.so.1.0
   obj:/usr/lib64/libpython2.7.so.1.0
   fun:PyImport_ImportModuleLevel
   obj:/usr/lib64/libpython2.7.so.1.0
   fun:PyEval_EvalFrameEx
}
{
   <insert_a_suppression_name_here>
   Memcheck:Leak
   fun:malloc
   obj:/usr/lib64/libpython2.7.so.1.0
   fun:PyDict_SetItemString
   fun:PyType_Ready
   fun:_ZN5boost6python7objects20function_handle_implERKNS1_11py_functionE
   fun:_ZN5boost6python29make_instance_reduce_functionEv
   fun:_ZN5boost6python7objects10class_baseC1EPKcmPKNS0_9type_infoES4_
   fun:_ZN5boost6python6class_IN4dust8documentENS0_6detail13not_specifiedES5_S5_EC2INS0_4initISt8weak_ptrINS2_15key_value_storeEESsN4mpl_5void_ESD_SD_SD_SD_SD_SD_SD_SD_SD_SD_SD_SD_EEEEPKcRKNS0_9init_baseIT_EE
   fun:_ZN5boost6python6class_IN4dust8documentENS0_6detail13not_specifiedES5_S5_EC1INS0_4initISt8weak_ptrINS2_15key_value_storeEESsN4mpl_5void_ESD_SD_SD_SD_SD_SD_SD_SD_SD_SD_SD_SD_EEEEPKcRKNS0_9init_baseIT_EE
   fun:_ZN11dust_server16init_module_DustEv
   fun:_ZN5boost6python21handle_exception_implENS_9function0IvEE
   fun:_ZN5boost6python6detail11init_moduleEPKcPFvvE
}
{
   <insert_a_suppression_name_here>
   Memcheck:Leak
   fun:malloc
   obj:/usr/lib64/libpython2.7.so.1.0
   fun:PyDict_SetItemString
   fun:PyType_Ready
   fun:_PyObject_GenericGetAttrWithDict
   obj:/usr/lib64/libpython2.7.so.1.0
   obj:/usr/lib64/libpython2.7.so.1.0
   fun:PyObject_Call
   fun:PyObject_CallFunctionObjArgs
   fun:PyObject_IsInstance
   fun:class_setattro
   fun:PyObject_SetAttr
}
{
   <insert_a_suppression_name_here>
   Memcheck:Leak
   fun:malloc
   fun:PyObject_Malloc
   fun:_PyObject_GC_Malloc
   fun:PyType_GenericAlloc
   obj:/usr/lib64/libpython2.7.so.1.0
   obj:/usr/lib64/libpython2.7.so.1.0
   fun:PyObject_Call
   fun:PyEval_EvalFrameEx
   fun:PyEval_EvalFrameEx
   fun:PyEval_EvalFrameEx
   fun:PyEval_EvalCodeEx
   fun:PyEval_EvalCode
}
{
   <insert_a_suppression_name_here>
   Memcheck:Leak
   fun:malloc
   fun:PyObject_Malloc
   fun:_PyObject_GC_Malloc
   fun:PyType_GenericAlloc
   obj:/usr/lib64/libpython2.7.so.1.0
   fun:PyDescr_NewMember
   fun:PyType_Ready
   fun:PyStructSequence_InitType
   fun:Py_InitializeEx
   fun:_ZN11dust_server17PythonInitializerC2Ev
   fun:_ZN11dust_server17PythonInitializerC1Ev
   fun:__cxx_global_var_init25
}
{
   <insert_a_suppression_name_here>
   Memcheck:Leak
   fun:malloc
   fun:PyObject_Malloc
   fun:_PyObject_GC_Malloc
   fun:_PyObject_GC_New
   fun:PyList_New
   fun:PySequence_List
   obj:/usr/lib64/libpython2.7.so.1.0
   fun:PyObject_Call
   fun:PyEval_CallObjectWithKeywords
   obj:/usr/lib64/libpython2.7.so.1.0
   fun:PyType_Ready
   obj:/usr/lib64/libpython2.7.so.1.0
}
{
   <insert_a_suppression_name_here>
   Memcheck:Leak
   fun:malloc
   fun:PyObject_Malloc
   fun:_PyObject_GC_Malloc
   fun:PyType_GenericAlloc
   obj:/usr/lib64/libpython2.7.so.1.0
   obj:/usr/lib64/libpython2.7.so.1.0
   fun:PyObject_Call
   obj:/usr/lib64/libpython2.7.so.1.0
   fun:PyObject_CallFunction
   fun:PyErr_NewException
   fun:initzipimport
   obj:/usr/lib64/libpython2.7.so.1.0
}
{
   <insert_a_suppression_name_here>
   Memcheck:Leak
   fun:malloc
   fun:PyObject_Malloc
   fun:_PyObject_GC_Malloc
   fun:PyType_GenericAlloc
   obj:/usr/lib64/libpython2.7.so.1.0
   obj:/usr/lib64/libpython2.7.so.1.0
   fun:PyObject_Call
   obj:/usr/lib64/libpython2.7.so.1.0
   fun:PyObject_CallFunction
   fun:PyErr_NewException
   fun:initsignal
   fun:PyOS_InitInterrupts
}
{
   <insert_a_suppression_name_here>
   Memcheck:Leak
   fun:malloc
   fun:PyObject_Malloc
   fun:_PyObject_GC_Malloc
   fun:PyType_GenericAlloc
   obj:/usr/lib64/libpython2.7.so.1.0
   obj:/usr/lib64/libpython2.7.so.1.0
   fun:PyObject_Call
   fun:PyObject_CallFunctionObjArgs
   fun:PyEval_EvalFrameEx
   fun:PyEval_EvalCodeEx
   fun:PyEval_EvalFrameEx
   fun:PyEval_EvalFrameEx
}
{
   <insert_a_suppression_name_here>
   Memcheck:Leak
   fun:malloc
   fun:PyObject_Malloc
   fun:_PyObject_GC_Malloc
   fun:PyType_GenericAlloc
   obj:/usr/lib64/libpython2.7.so.1.0
   obj:/usr/lib64/libpython2.7.so.1.0
   fun:PyObject_Call
   fun:PyEval_CallObjectWithKeywords
   fun:PyEval_CallFunction
   fun:_ZN5boost6python7objects10class_baseC1EPKcmPKNS0_9type_infoES4_
   fun:_ZN5boost6python6class_IN4dust8documentENS0_6detail13not_specifiedES5_S5_EC2INS0_4initISt8weak_ptrINS2_15key_value_storeEESsN4mpl_5void_ESD_SD_SD_SD_SD_SD_SD_SD_SD_SD_SD_SD_EEEEPKcRKNS0_9init_baseIT_EE
   fun:_ZN5boost6python6class_IN4dust8documentENS0_6detail13not_specifiedES5_S5_EC1INS0_4initISt8weak_ptrINS2_15key_value_storeEESsN4mpl_5void_ESD_SD_SD_SD_SD_SD_SD_SD_SD_SD_SD_SD_EEEEPKcRKNS0_9init_baseIT_EE
}
{
   <insert_a_suppression_name_here>
   Memcheck:Leak
   fun:malloc
   fun:PyObject_Malloc
   fun:_PyObject_GC_Malloc
   fun:PyType_GenericAlloc
   obj:/usr/lib64/libpython2.7.so.1.0
   obj:/usr/lib64/libpython2.7.so.1.0
   fun:PyObject_Call
   fun:PyEval_CallObjectWithKeywords
   fun:PyEval_CallFunction
   fun:_ZN5boost6python7objects10class_baseC1EPKcmPKNS0_9type_infoES4_
   fun:_ZN5boost6python6class_ISt6vectorIN4dust8documentESaIS4_EENS0_6detail13not_specifiedES8_S8_EC2EPKcSB_
   fun:_ZN5boost6python6class_ISt6vectorIN4dust8documentESaIS4_EENS0_6detail13not_specifiedES8_S8_EC1EPKcSB_
}
{
   <insert_a_suppression_name_here>
   Memcheck:Leak
   fun:malloc
   obj:/usr/lib64/libpython2.7.so.1.0
   fun:PyInt_FromLong
   obj:/usr/lib64/libpython2.7.so.1.0
   obj:/usr/lib64/libpython2.7.so.1.0
   obj:/usr/lib64/libpython2.7.so.1.0
   fun:PyMarshal_ReadObjectFromString
   fun:PyMarshal_ReadLastObjectFromFile
   obj:/usr/lib64/libpython2.7.so.1.0
   obj:/usr/lib64/libpython2.7.so.1.0
   obj:/usr/lib64/libpython2.7.so.1.0
   obj:/usr/lib64/libpython2.7.so.1.0
}
{
   <insert_a_suppression_name_here>
   Memcheck:Leak
   fun:malloc
   fun:PyObject_Malloc
   fun:_PyObject_GC_Malloc
   fun:_PyObject_GC_New
   fun:PyList_New
   obj:/usr/lib64/libpython2.7.so.1.0
   obj:/usr/lib64/libpython2.7.so.1.0
   fun:Py_BuildValue
   obj:/usr/lib64/libpython2.7.so.1.0
   fun:PyObject_Call
   fun:PyEval_CallObjectWithKeywords
   obj:/usr/lib64/libpython2.7.so.1.0
}
{
   <insert_a_suppression_name_here>
   Memcheck:Leak
   fun:malloc
   fun:PyObject_Malloc
   fun:_PyObject_GC_Malloc
   fun:PyType_GenericAlloc
   obj:/usr/lib64/libpython2.7.so.1.0
   obj:/usr/lib64/libpython2.7.so.1.0
   obj:/usr/lib64/libpython2.7.so.1.0
   fun:PyObject_Call
   fun:PyEval_EvalFrameEx
   fun:PyEval_EvalCodeEx
   obj:/usr/lib64/libpython2.7.so.1.0
   fun:PyObject_Call
}
{
   <insert_a_suppression_name_here>
   Memcheck:Leak
   fun:malloc
   fun:PyObject_Malloc
   fun:_PyObject_GC_Malloc
   fun:PyType_GenericAlloc
   obj:/usr/lib64/libpython2.7.so.1.0
   fun:PyDescr_NewWrapper
   fun:PyType_Ready
   fun:PyStructSequence_InitType
   fun:_PyLong_Init
   fun:Py_InitializeEx
   fun:_ZN11dust_server17PythonInitializerC2Ev
   fun:_ZN11dust_server17PythonInitializerC1Ev
}
{
   <insert_a_suppression_name_here>
   Memcheck:Leak
   fun:malloc
   fun:PyObject_Malloc
   fun:_PyObject_GC_Malloc
   fun:PyType_GenericAlloc
   obj:/usr/lib64/libpython2.7.so.1.0
   fun:PyDescr_NewWrapper
   fun:PyType_Ready
   fun:PyStructSequence_InitType
   fun:Py_InitializeEx
   fun:_ZN11dust_server17PythonInitializerC2Ev
   fun:_ZN11dust_server17PythonInitializerC1Ev
   fun:__cxx_global_var_init25
}
{
   <insert_a_suppression_name_here>
   Memcheck:Leak
   fun:malloc
   fun:PyObject_Malloc
   fun:_PyObject_GC_Malloc
   fun:PyType_GenericAlloc
   obj:/usr/lib64/libpython2.7.so.1.0
   fun:PyDescr_NewWrapper
   fun:PyType_Ready
   fun:PyStructSequence_InitType
   fun:_PySys_Init
   fun:Py_InitializeEx
   fun:_ZN11dust_server17PythonInitializerC2Ev
   fun:_ZN11dust_server17PythonInitializerC1Ev
}
{
   <insert_a_suppression_name_here>
   Memcheck:Leak
   fun:malloc
   fun:PyObject_Malloc
   fun:_PyObject_GC_Malloc
   fun:PyType_GenericAlloc
   obj:/usr/lib64/libpython2.7.so.1.0
   fun:PyDescr_NewWrapper
   fun:PyType_Ready
   fun:PyStructSequence_InitType
   fun:initposix
   obj:/usr/lib64/libpython2.7.so.1.0
   obj:/usr/lib64/libpython2.7.so.1.0
   obj:/usr/lib64/libpython2.7.so.1.0
}
{
   <insert_a_suppression_name_here>
   Memcheck:Leak
   fun:malloc
   fun:PyObject_Malloc
   fun:_PyObject_GC_Malloc
   fun:_PyObject_GC_New
   obj:/usr/lib64/libpython2.7.so.1.0
   fun:PyWeakref_NewRef
   obj:/usr/lib64/libpython2.7.so.1.0
   fun:PyType_Ready
   obj:/usr/lib64/libpython2.7.so.1.0
   obj:/usr/lib64/libpython2.7.so.1.0
   fun:PyEval_EvalFrameEx
   fun:PyEval_EvalCodeEx
}
{
   <insert_a_suppression_name_here>
   Memcheck:Leak
   fun:malloc
   fun:PyObject_Malloc
   obj:/usr/lib64/libpython2.7.so.1.0
   obj:/usr/lib64/libpython2.7.so.1.0
   fun:PyEval_EvalFrameEx
   fun:PyEval_EvalCodeEx
   obj:/usr/lib64/libpython2.7.so.1.0
   fun:PyObject_Call
   obj:/usr/lib64/libpython2.7.so.1.0
   obj:/usr/lib64/libpython2.7.so.1.0
   fun:PyObject_Call
   fun:PyObject_CallFunctionObjArgs
}
{
   <insert_a_suppression_name_here>
   Memcheck:Leak
   fun:malloc
   fun:PyObject_Malloc
   fun:_PyObject_GC_Malloc
   fun:_PyObject_GC_New
   obj:/usr/lib64/libpython2.7.so.1.0
   fun:PyWeakref_NewRef
   obj:/usr/lib64/libpython2.7.so.1.0
   fun:PyType_Ready
   obj:/usr/lib64/libpython2.7.so.1.0
   obj:/usr/lib64/libpython2.7.so.1.0
   fun:PyObject_Call
   fun:PyObject_CallFunctionObjArgs
}
{
   <insert_a_suppression_name_here>
   Memcheck:Leak
   fun:malloc
   fun:PyObject_Malloc
   fun:_PyObject_GC_Malloc
   fun:PyType_GenericAlloc
   obj:/usr/lib64/libpython2.7.so.1.0
   fun:PyDescr_NewGetSet
   fun:PyType_Ready
   obj:/usr/lib64/libpython2.7.so.1.0
   obj:/usr/lib64/libpython2.7.so.1.0
   fun:PyObject_Call
   fun:PyObject_CallFunctionObjArgs
   fun:PyEval_EvalFrameEx
}
{
   <insert_a_suppression_name_here>
   Memcheck:Leak
   fun:malloc
   fun:PyObject_Malloc
   fun:PyString_FromString
   fun:PyDict_SetItemString
   fun:Py_InitModule4_64
   obj:/usr/lib64/libpython2.7.so.1.0
   obj:/usr/lib64/libpython2.7.so.1.0
   obj:/usr/lib64/libpython2.7.so.1.0
   obj:/usr/lib64/libpython2.7.so.1.0
   fun:PyImport_ImportModuleLevel
   obj:/usr/lib64/libpython2.7.so.1.0
   fun:PyObject_Call
}
{
   <insert_a_suppression_name_here>
   Memcheck:Leak
   fun:malloc
   fun:PyObject_Malloc
   fun:PyString_FromString
   fun:PyDict_SetItemString
   fun:Py_InitModule4_64
   fun:_PyBuiltin_Init
   fun:Py_InitializeEx
   fun:_ZN11dust_server17PythonInitializerC2Ev
   fun:_ZN11dust_server17PythonInitializerC1Ev
   fun:__cxx_global_var_init25
   fun:_GLOBAL__I_a
   fun:__libc_csu_init
}
{
   <insert_a_suppression_name_here>
   Memcheck:Leak
   fun:malloc
   obj:/usr/lib64/libpython2.7.so.1.0
   fun:_PyInt_Init
   fun:Py_InitializeEx
   fun:_ZN11dust_server17PythonInitializerC2Ev
   fun:_ZN11dust_server17PythonInitializerC1Ev
   fun:__cxx_global_var_init25
   fun:_GLOBAL__I_a
   fun:__libc_csu_init
   fun:(below main)
}
{
   <insert_a_suppression_name_here>
   Memcheck:Leak
   fun:malloc
   obj:/usr/lib64/libpython2.7.so.1.0
   fun:PyDict_SetItemString
   fun:PyType_Ready
   obj:/usr/lib64/libpython2.7.so.1.0
   obj:/usr/lib64/libpython2.7.so.1.0
   fun:PyObject_Call
   fun:PyObject_CallFunctionObjArgs
   fun:PyEval_EvalFrameEx
   fun:PyEval_EvalCodeEx
   fun:PyEval_EvalCode
   fun:PyImport_ExecCodeModuleEx
}
{
   <insert_a_suppression_name_here>
   Memcheck:Leak
   fun:malloc
   fun:PyObject_Malloc
   fun:_PyObject_GC_Malloc
   fun:PyType_GenericAlloc
   obj:/usr/lib64/libpython2.7.so.1.0
   obj:/usr/lib64/libpython2.7.so.1.0
   fun:PyObject_Call
   fun:PyEval_EvalFrameEx
   fun:PyEval_EvalCodeEx
   obj:/usr/lib64/libpython2.7.so.1.0
   fun:PyObject_Call
   obj:/usr/lib64/libpython2.7.so.1.0
}
{
   <insert_a_suppression_name_here>
   Memcheck:Leak
   fun:malloc
   fun:PyObject_Malloc
   fun:_PyObject_GC_Malloc
   fun:PyType_GenericAlloc
   obj:/usr/lib64/libpython2.7.so.1.0
   fun:PyObject_Call
   fun:PyEval_EvalFrameEx
   fun:PyEval_EvalCodeEx
   obj:/usr/lib64/libpython2.7.so.1.0
   fun:PyObject_Call
   obj:/usr/lib64/libpython2.7.so.1.0
   obj:/usr/lib64/libpython2.7.so.1.0
}
{
   <insert_a_suppression_name_here>
   Memcheck:Leak
   fun:malloc
   obj:/usr/lib64/libpython2.7.so.1.0
   fun:PyDict_SetItemString
   fun:PyStructSequence_InitType
   fun:_PyLong_Init
   fun:Py_InitializeEx
   fun:_ZN11dust_server17PythonInitializerC2Ev
   fun:_ZN11dust_server17PythonInitializerC1Ev
   fun:__cxx_global_var_init25
   fun:_GLOBAL__I_a
   fun:__libc_csu_init
   fun:(below main)
}
{
   <insert_a_suppression_name_here>
   Memcheck:Leak
   fun:malloc
   obj:/usr/lib64/libpython2.7.so.1.0
   fun:PyDict_SetItemString
   fun:PyType_Ready
   fun:PyStructSequence_InitType
   fun:Py_InitializeEx
   fun:_ZN11dust_server17PythonInitializerC2Ev
   fun:_ZN11dust_server17PythonInitializerC1Ev
   fun:__cxx_global_var_init25
   fun:_GLOBAL__I_a
   fun:__libc_csu_init
   fun:(below main)
}
{
   <insert_a_suppression_name_here>
   Memcheck:Leak
   fun:malloc
   obj:/usr/lib64/libpython2.7.so.1.0
   fun:PyDict_SetItemString
   fun:PyType_Ready
   fun:PyStructSequence_InitType
   fun:_PySys_Init
   fun:Py_InitializeEx
   fun:_ZN11dust_server17PythonInitializerC2Ev
   fun:_ZN11dust_server17PythonInitializerC1Ev
   fun:__cxx_global_var_init25
   fun:_GLOBAL__I_a
   fun:__libc_csu_init
}
{
   <insert_a_suppression_name_here>
   Memcheck:Leak
   fun:malloc
   obj:/usr/lib64/libpython2.7.so.1.0
   fun:PyDict_SetItemString
   fun:PyType_Ready
   fun:PyStructSequence_InitType
   fun:initposix
   obj:/usr/lib64/libpython2.7.so.1.0
   obj:/usr/lib64/libpython2.7.so.1.0
   obj:/usr/lib64/libpython2.7.so.1.0
   obj:/usr/lib64/libpython2.7.so.1.0
   fun:PyImport_ImportModuleLevel
   obj:/usr/lib64/libpython2.7.so.1.0
}
{
   <insert_a_suppression_name_here>
   Memcheck:Leak
   fun:malloc
   obj:/usr/lib64/libpython2.7.so.1.0
   fun:PyDict_SetItemString
   obj:/usr/lib64/libpython2.7.so.1.0
   obj:/usr/lib64/libpython2.7.so.1.0
   fun:_PyObject_GenericSetAttrWithDict
   obj:/usr/lib64/libpython2.7.so.1.0
   fun:PyObject_SetAttr
   fun:PyEval_EvalFrameEx
   fun:PyEval_EvalCodeEx
   obj:/usr/lib64/libpython2.7.so.1.0
   fun:PyObject_Call
}
{
   <insert_a_suppression_name_here>
   Memcheck:Leak
   fun:malloc
   fun:PyObject_Malloc
   obj:/usr/lib64/libpython2.7.so.1.0
   obj:/usr/lib64/libpython2.7.so.1.0
   fun:PyObject_Call
   fun:PyObject_CallFunctionObjArgs
   fun:PyEval_EvalFrameEx
   fun:PyEval_EvalCodeEx
   fun:PyEval_EvalCode
   fun:PyImport_ExecCodeModuleEx
   obj:/usr/lib64/libpython2.7.so.1.0
   obj:/usr/lib64/libpython2.7.so.1.0
}
{
   <insert_a_suppression_name_here>
   Memcheck:Leak
   fun:malloc
   fun:PyObject_Malloc
   fun:PyString_FromString
   fun:PyString_InternFromString
   obj:/usr/lib64/libpython2.7.so.1.0
   fun:PyType_Ready
   fun:PyType_Ready
   fun:_Py_ReadyTypes
   fun:Py_InitializeEx
   fun:_ZN11dust_server17PythonInitializerC2Ev
   fun:_ZN11dust_server17PythonInitializerC1Ev
   fun:__cxx_global_var_init25
}
{
   <insert_a_suppression_name_here>
   Memcheck:Leak
   fun:malloc
   obj:/usr/lib64/libpython2.7.so.1.0
   fun:PyDict_SetItemString
   fun:PyType_Ready
   obj:/usr/lib64/libpython2.7.so.1.0
   obj:/usr/lib64/libpython2.7.so.1.0
   fun:PyEval_EvalFrameEx
   fun:PyEval_EvalCodeEx
   obj:/usr/lib64/libpython2.7.so.1.0
   fun:PyObject_Call
   obj:/usr/lib64/libpython2.7.so.1.0
   obj:/usr/lib64/libpython2.7.so.1.0
}
{
   <insert_a_suppression_name_here>
   Memcheck:Leak
   fun:malloc
   fun:PyObject_Malloc
   fun:_PyObject_GC_Malloc
   fun:_PyObject_GC_New
   fun:PyDict_New
   fun:PyDict_Copy
   obj:/usr/lib64/libpython2.7.so.1.0
   obj:/usr/lib64/libpython2.7.so.1.0
   fun:PyEval_EvalFrameEx
   fun:PyEval_EvalCodeEx
   obj:/usr/lib64/libpython2.7.so.1.0
   fun:PyObject_Call
}
{
   <insert_a_suppression_name_here>
   Memcheck:Leak
   fun:malloc
   fun:PyObject_Malloc
   fun:_PyObject_GC_Malloc
   fun:_PyObject_GC_New
   fun:PyDict_New
   fun:PyDict_Copy
   obj:/usr/lib64/libpython2.7.so.1.0
   obj:/usr/lib64/libpython2.7.so.1.0
   fun:PyObject_Call
   fun:PyObject_CallFunctionObjArgs
   fun:PyEval_EvalFrameEx
   fun:PyEval_EvalCodeEx
}
{
   <insert_a_suppression_name_here>
   Memcheck:Leak
   fun:malloc
   obj:/usr/lib64/libpython2.7.so.1.0
   fun:PyDict_Merge
   fun:PyDict_Copy
   obj:/usr/lib64/libpython2.7.so.1.0
   obj:/usr/lib64/libpython2.7.so.1.0
   fun:PyEval_EvalFrameEx
   fun:PyEval_EvalCodeEx
   obj:/usr/lib64/libpython2.7.so.1.0
   fun:PyObject_Call
   obj:/usr/lib64/libpython2.7.so.1.0
   obj:/usr/lib64/libpython2.7.so.1.0
}
{
   <insert_a_suppression_name_here>
   Memcheck:Leak
   fun:malloc
   fun:PyObject_Malloc
   fun:_PyObject_GC_Malloc
   fun:_PyObject_GC_New
   fun:PyFunction_New
   fun:PyEval_EvalFrameEx
   fun:PyEval_EvalCodeEx
   obj:/usr/lib64/libpython2.7.so.1.0
   fun:PyObject_Call
   obj:/usr/lib64/libpython2.7.so.1.0
   fun:PyObject_Call
   obj:/usr/lib64/libpython2.7.so.1.0
}
{
   <insert_a_suppression_name_here>
   Memcheck:Leak
   fun:malloc
   obj:/usr/lib64/libpython2.7.so.1.0
   fun:PyDict_Merge
   fun:PyDict_Copy
   obj:/usr/lib64/libpython2.7.so.1.0
   obj:/usr/lib64/libpython2.7.so.1.0
   fun:PyObject_Call
   fun:PyObject_CallFunctionObjArgs
   fun:PyEval_EvalFrameEx
   fun:PyEval_EvalCodeEx
   fun:PyEval_EvalCode
   fun:PyImport_ExecCodeModuleEx
}
{
   <insert_a_suppression_name_here>
   Memcheck:Leak
   fun:malloc
   obj:/usr/lib64/libpython2.7.so.1.0
   fun:PyEval_EvalFrameEx
   fun:PyEval_EvalCodeEx
   fun:PyEval_EvalCode
   fun:PyImport_ExecCodeModuleEx
   obj:/usr/lib64/libpython2.7.so.1.0
   obj:/usr/lib64/libpython2.7.so.1.0
   obj:/usr/lib64/libpython2.7.so.1.0
   fun:PyImport_ImportModuleLevel
   obj:/usr/lib64/libpython2.7.so.1.0
   fun:PyObject_Call
}
{
   <insert_a_suppression_name_here>
   Memcheck:Leak
   fun:malloc
   obj:/usr/lib64/libpython2.7.so.1.0
   fun:PyDict_SetItemString
   fun:_PyBuiltin_Init
   fun:Py_InitializeEx
   fun:_ZN11dust_server17PythonInitializerC2Ev
   fun:_ZN11dust_server17PythonInitializerC1Ev
   fun:__cxx_global_var_init25
   fun:_GLOBAL__I_a
   fun:__libc_csu_init
   fun:(below main)
}
{
   <insert_a_suppression_name_here>
   Memcheck:Leak
   fun:malloc
   fun:PyObject_Malloc
   fun:_PyObject_GC_Malloc
   fun:_PyObject_GC_New
   fun:PyDict_New
   fun:_PyObject_GenericSetAttrWithDict
   fun:PyObject_SetAttr
   fun:PyEval_EvalFrameEx
   fun:PyEval_EvalCodeEx
   obj:/usr/lib64/libpython2.7.so.1.0
   fun:PyObject_Call
   obj:/usr/lib64/libpython2.7.so.1.0
}
{
   <insert_a_suppression_name_here>
   Memcheck:Leak
   fun:malloc
   fun:PyObject_Malloc
   fun:_PyObject_GC_Malloc
   fun:PyType_GenericAlloc
   obj:/usr/lib64/libpython2.7.so.1.0
   obj:/usr/lib64/libpython2.7.so.1.0
   fun:PyEval_EvalFrameEx
   fun:PyEval_EvalCodeEx
   obj:/usr/lib64/libpython2.7.so.1.0
   fun:PyObject_Call
   obj:/usr/lib64/libpython2.7.so.1.0
   obj:/usr/lib64/libpython2.7.so.1.0
}
{
   <insert_a_suppression_name_here>
   Memcheck:Leak
   fun:malloc
   fun:PyObject_Malloc
   fun:_PyObject_GC_Malloc
   fun:PyType_GenericAlloc
   obj:/usr/lib64/libpython2.7.so.1.0
   obj:/usr/lib64/libpython2.7.so.1.0
   fun:PyObject_Call
   fun:PyObject_CallFunctionObjArgs
   fun:PyEval_EvalFrameEx
   fun:PyEval_EvalCodeEx
   fun:PyEval_EvalCode
   fun:PyImport_ExecCodeModuleEx
}
{
   <insert_a_suppression_name_here>
   Memcheck:Leak
   fun:malloc
   fun:PyObject_Malloc
   fun:_PyObject_GC_Malloc
   fun:_PyObject_GC_New
   fun:PyFunction_New
   fun:PyEval_EvalFrameEx
   fun:PyEval_EvalCodeEx
   fun:PyEval_EvalFrameEx
   fun:PyEval_EvalCodeEx
   fun:PyEval_EvalCode
   fun:PyImport_ExecCodeModuleEx
   obj:/usr/lib64/libpython2.7.so.1.0
}
{
   <insert_a_suppression_name_here>
   Memcheck:Leak
   fun:malloc
   fun:PyObject_Malloc
   fun:PyCode_New
   obj:/usr/lib64/libpython2.7.so.1.0
   obj:/usr/lib64/libpython2.7.so.1.0
   obj:/usr/lib64/libpython2.7.so.1.0
   obj:/usr/lib64/libpython2.7.so.1.0
   obj:/usr/lib64/libpython2.7.so.1.0
   fun:PyMarshal_ReadObjectFromString
   fun:PyMarshal_ReadLastObjectFromFile
   obj:/usr/lib64/libpython2.7.so.1.0
   obj:/usr/lib64/libpython2.7.so.1.0
}
{
   <insert_a_suppression_name_here>
   Memcheck:Leak
   fun:_Znwm
   fun:_ZN5boost6python6detail26register_exception_handlerERKNS_9function2IbRKNS1_17exception_handlerERKNS_9function0IvEEEE
   fun:_ZN5boost6python29register_exception_translatorINS_6system12system_errorEZN11dust_server16init_module_DustEvE3$_0EEvT0_PNS_4typeIT_EE
   fun:_ZN11dust_server16init_module_DustEv
   fun:_ZN5boost6python21handle_exception_implENS_9function0IvEE
   fun:_ZN5boost6python6detail11init_moduleEPKcPFvvE
   fun:initDust
   fun:_ZN11dust_server17PythonInitializerC2Ev
   fun:_ZN11dust_server17PythonInitializerC1Ev
   fun:__cxx_global_var_init25
   fun:_GLOBAL__I_a
   fun:__libc_csu_init
}

